
bzip2:     file format elf64-x86-64


Disassembly of section .init:

0000000000001000 <_init>:
    1000:	f3 0f 1e fa          	endbr64 
    1004:	48 83 ec 08          	sub    $0x8,%rsp
    1008:	48 8b 05 d9 bf 01 00 	mov    0x1bfd9(%rip),%rax        # 1cfe8 <__gmon_start__@Base>
    100f:	48 85 c0             	test   %rax,%rax
    1012:	74 02                	je     1016 <_init+0x16>
    1014:	ff d0                	call   *%rax
    1016:	48 83 c4 08          	add    $0x8,%rsp
    101a:	c3                   	ret    

Disassembly of section .plt:

0000000000001020 <.plt>:
    1020:	ff 35 fa be 01 00    	push   0x1befa(%rip)        # 1cf20 <_GLOBAL_OFFSET_TABLE_+0x8>
    1026:	f2 ff 25 fb be 01 00 	bnd jmp *0x1befb(%rip)        # 1cf28 <_GLOBAL_OFFSET_TABLE_+0x10>
    102d:	0f 1f 00             	nopl   (%rax)
    1030:	f3 0f 1e fa          	endbr64 
    1034:	68 00 00 00 00       	push   $0x0
    1039:	f2 e9 e1 ff ff ff    	bnd jmp 1020 <_init+0x20>
    103f:	90                   	nop
    1040:	f3 0f 1e fa          	endbr64 
    1044:	68 01 00 00 00       	push   $0x1
    1049:	f2 e9 d1 ff ff ff    	bnd jmp 1020 <_init+0x20>
    104f:	90                   	nop
    1050:	f3 0f 1e fa          	endbr64 
    1054:	68 02 00 00 00       	push   $0x2
    1059:	f2 e9 c1 ff ff ff    	bnd jmp 1020 <_init+0x20>
    105f:	90                   	nop
    1060:	f3 0f 1e fa          	endbr64 
    1064:	68 03 00 00 00       	push   $0x3
    1069:	f2 e9 b1 ff ff ff    	bnd jmp 1020 <_init+0x20>
    106f:	90                   	nop
    1070:	f3 0f 1e fa          	endbr64 
    1074:	68 04 00 00 00       	push   $0x4
    1079:	f2 e9 a1 ff ff ff    	bnd jmp 1020 <_init+0x20>
    107f:	90                   	nop
    1080:	f3 0f 1e fa          	endbr64 
    1084:	68 05 00 00 00       	push   $0x5
    1089:	f2 e9 91 ff ff ff    	bnd jmp 1020 <_init+0x20>
    108f:	90                   	nop
    1090:	f3 0f 1e fa          	endbr64 
    1094:	68 06 00 00 00       	push   $0x6
    1099:	f2 e9 81 ff ff ff    	bnd jmp 1020 <_init+0x20>
    109f:	90                   	nop
    10a0:	f3 0f 1e fa          	endbr64 
    10a4:	68 07 00 00 00       	push   $0x7
    10a9:	f2 e9 71 ff ff ff    	bnd jmp 1020 <_init+0x20>
    10af:	90                   	nop
    10b0:	f3 0f 1e fa          	endbr64 
    10b4:	68 08 00 00 00       	push   $0x8
    10b9:	f2 e9 61 ff ff ff    	bnd jmp 1020 <_init+0x20>
    10bf:	90                   	nop
    10c0:	f3 0f 1e fa          	endbr64 
    10c4:	68 09 00 00 00       	push   $0x9
    10c9:	f2 e9 51 ff ff ff    	bnd jmp 1020 <_init+0x20>
    10cf:	90                   	nop
    10d0:	f3 0f 1e fa          	endbr64 
    10d4:	68 0a 00 00 00       	push   $0xa
    10d9:	f2 e9 41 ff ff ff    	bnd jmp 1020 <_init+0x20>
    10df:	90                   	nop
    10e0:	f3 0f 1e fa          	endbr64 
    10e4:	68 0b 00 00 00       	push   $0xb
    10e9:	f2 e9 31 ff ff ff    	bnd jmp 1020 <_init+0x20>
    10ef:	90                   	nop
    10f0:	f3 0f 1e fa          	endbr64 
    10f4:	68 0c 00 00 00       	push   $0xc
    10f9:	f2 e9 21 ff ff ff    	bnd jmp 1020 <_init+0x20>
    10ff:	90                   	nop
    1100:	f3 0f 1e fa          	endbr64 
    1104:	68 0d 00 00 00       	push   $0xd
    1109:	f2 e9 11 ff ff ff    	bnd jmp 1020 <_init+0x20>
    110f:	90                   	nop
    1110:	f3 0f 1e fa          	endbr64 
    1114:	68 0e 00 00 00       	push   $0xe
    1119:	f2 e9 01 ff ff ff    	bnd jmp 1020 <_init+0x20>
    111f:	90                   	nop
    1120:	f3 0f 1e fa          	endbr64 
    1124:	68 0f 00 00 00       	push   $0xf
    1129:	f2 e9 f1 fe ff ff    	bnd jmp 1020 <_init+0x20>
    112f:	90                   	nop
    1130:	f3 0f 1e fa          	endbr64 
    1134:	68 10 00 00 00       	push   $0x10
    1139:	f2 e9 e1 fe ff ff    	bnd jmp 1020 <_init+0x20>
    113f:	90                   	nop
    1140:	f3 0f 1e fa          	endbr64 
    1144:	68 11 00 00 00       	push   $0x11
    1149:	f2 e9 d1 fe ff ff    	bnd jmp 1020 <_init+0x20>
    114f:	90                   	nop
    1150:	f3 0f 1e fa          	endbr64 
    1154:	68 12 00 00 00       	push   $0x12
    1159:	f2 e9 c1 fe ff ff    	bnd jmp 1020 <_init+0x20>
    115f:	90                   	nop
    1160:	f3 0f 1e fa          	endbr64 
    1164:	68 13 00 00 00       	push   $0x13
    1169:	f2 e9 b1 fe ff ff    	bnd jmp 1020 <_init+0x20>
    116f:	90                   	nop
    1170:	f3 0f 1e fa          	endbr64 
    1174:	68 14 00 00 00       	push   $0x14
    1179:	f2 e9 a1 fe ff ff    	bnd jmp 1020 <_init+0x20>
    117f:	90                   	nop

Disassembly of section .plt.got:

0000000000001180 <__cxa_finalize@plt>:
    1180:	f3 0f 1e fa          	endbr64 
    1184:	f2 ff 25 6d be 01 00 	bnd jmp *0x1be6d(%rip)        # 1cff8 <__cxa_finalize@GLIBC_2.2.5>
    118b:	0f 1f 44 00 00       	nopl   0x0(%rax,%rax,1)

Disassembly of section .plt.sec:

0000000000001190 <free@plt>:
    1190:	f3 0f 1e fa          	endbr64 
    1194:	f2 ff 25 95 bd 01 00 	bnd jmp *0x1bd95(%rip)        # 1cf30 <free@GLIBC_2.2.5>
    119b:	0f 1f 44 00 00       	nopl   0x0(%rax,%rax,1)

00000000000011a0 <__errno_location@plt>:
    11a0:	f3 0f 1e fa          	endbr64 
    11a4:	f2 ff 25 8d bd 01 00 	bnd jmp *0x1bd8d(%rip)        # 1cf38 <__errno_location@GLIBC_2.2.5>
    11ab:	0f 1f 44 00 00       	nopl   0x0(%rax,%rax,1)

00000000000011b0 <puts@plt>:
    11b0:	f3 0f 1e fa          	endbr64 
    11b4:	f2 ff 25 85 bd 01 00 	bnd jmp *0x1bd85(%rip)        # 1cf40 <puts@GLIBC_2.2.5>
    11bb:	0f 1f 44 00 00       	nopl   0x0(%rax,%rax,1)

00000000000011c0 <strlen@plt>:
    11c0:	f3 0f 1e fa          	endbr64 
    11c4:	f2 ff 25 7d bd 01 00 	bnd jmp *0x1bd7d(%rip)        # 1cf48 <strlen@GLIBC_2.2.5>
    11cb:	0f 1f 44 00 00       	nopl   0x0(%rax,%rax,1)

00000000000011d0 <__stack_chk_fail@plt>:
    11d0:	f3 0f 1e fa          	endbr64 
    11d4:	f2 ff 25 75 bd 01 00 	bnd jmp *0x1bd75(%rip)        # 1cf50 <__stack_chk_fail@GLIBC_2.4>
    11db:	0f 1f 44 00 00       	nopl   0x0(%rax,%rax,1)

00000000000011e0 <printf@plt>:
    11e0:	f3 0f 1e fa          	endbr64 
    11e4:	f2 ff 25 6d bd 01 00 	bnd jmp *0x1bd6d(%rip)        # 1cf58 <printf@GLIBC_2.2.5>
    11eb:	0f 1f 44 00 00       	nopl   0x0(%rax,%rax,1)

00000000000011f0 <memset@plt>:
    11f0:	f3 0f 1e fa          	endbr64 
    11f4:	f2 ff 25 65 bd 01 00 	bnd jmp *0x1bd65(%rip)        # 1cf60 <memset@GLIBC_2.2.5>
    11fb:	0f 1f 44 00 00       	nopl   0x0(%rax,%rax,1)

0000000000001200 <close@plt>:
    1200:	f3 0f 1e fa          	endbr64 
    1204:	f2 ff 25 5d bd 01 00 	bnd jmp *0x1bd5d(%rip)        # 1cf68 <close@GLIBC_2.2.5>
    120b:	0f 1f 44 00 00       	nopl   0x0(%rax,%rax,1)

0000000000001210 <fputc@plt>:
    1210:	f3 0f 1e fa          	endbr64 
    1214:	f2 ff 25 55 bd 01 00 	bnd jmp *0x1bd55(%rip)        # 1cf70 <fputc@GLIBC_2.2.5>
    121b:	0f 1f 44 00 00       	nopl   0x0(%rax,%rax,1)

0000000000001220 <read@plt>:
    1220:	f3 0f 1e fa          	endbr64 
    1224:	f2 ff 25 4d bd 01 00 	bnd jmp *0x1bd4d(%rip)        # 1cf78 <read@GLIBC_2.2.5>
    122b:	0f 1f 44 00 00       	nopl   0x0(%rax,%rax,1)

0000000000001230 <fprintf@plt>:
    1230:	f3 0f 1e fa          	endbr64 
    1234:	f2 ff 25 45 bd 01 00 	bnd jmp *0x1bd45(%rip)        # 1cf80 <fprintf@GLIBC_2.2.5>
    123b:	0f 1f 44 00 00       	nopl   0x0(%rax,%rax,1)

0000000000001240 <memcpy@plt>:
    1240:	f3 0f 1e fa          	endbr64 
    1244:	f2 ff 25 3d bd 01 00 	bnd jmp *0x1bd3d(%rip)        # 1cf88 <memcpy@GLIBC_2.14>
    124b:	0f 1f 44 00 00       	nopl   0x0(%rax,%rax,1)

0000000000001250 <malloc@plt>:
    1250:	f3 0f 1e fa          	endbr64 
    1254:	f2 ff 25 35 bd 01 00 	bnd jmp *0x1bd35(%rip)        # 1cf90 <malloc@GLIBC_2.2.5>
    125b:	0f 1f 44 00 00       	nopl   0x0(%rax,%rax,1)

0000000000001260 <open@plt>:
    1260:	f3 0f 1e fa          	endbr64 
    1264:	f2 ff 25 2d bd 01 00 	bnd jmp *0x1bd2d(%rip)        # 1cf98 <open@GLIBC_2.2.5>
    126b:	0f 1f 44 00 00       	nopl   0x0(%rax,%rax,1)

0000000000001270 <perror@plt>:
    1270:	f3 0f 1e fa          	endbr64 
    1274:	f2 ff 25 25 bd 01 00 	bnd jmp *0x1bd25(%rip)        # 1cfa0 <perror@GLIBC_2.2.5>
    127b:	0f 1f 44 00 00       	nopl   0x0(%rax,%rax,1)

0000000000001280 <atoi@plt>:
    1280:	f3 0f 1e fa          	endbr64 
    1284:	f2 ff 25 1d bd 01 00 	bnd jmp *0x1bd1d(%rip)        # 1cfa8 <atoi@GLIBC_2.2.5>
    128b:	0f 1f 44 00 00       	nopl   0x0(%rax,%rax,1)

0000000000001290 <strcat@plt>:
    1290:	f3 0f 1e fa          	endbr64 
    1294:	f2 ff 25 15 bd 01 00 	bnd jmp *0x1bd15(%rip)        # 1cfb0 <strcat@GLIBC_2.2.5>
    129b:	0f 1f 44 00 00       	nopl   0x0(%rax,%rax,1)

00000000000012a0 <exit@plt>:
    12a0:	f3 0f 1e fa          	endbr64 
    12a4:	f2 ff 25 0d bd 01 00 	bnd jmp *0x1bd0d(%rip)        # 1cfb8 <exit@GLIBC_2.2.5>
    12ab:	0f 1f 44 00 00       	nopl   0x0(%rax,%rax,1)

00000000000012b0 <fwrite@plt>:
    12b0:	f3 0f 1e fa          	endbr64 
    12b4:	f2 ff 25 05 bd 01 00 	bnd jmp *0x1bd05(%rip)        # 1cfc0 <fwrite@GLIBC_2.2.5>
    12bb:	0f 1f 44 00 00       	nopl   0x0(%rax,%rax,1)

00000000000012c0 <strerror@plt>:
    12c0:	f3 0f 1e fa          	endbr64 
    12c4:	f2 ff 25 fd bc 01 00 	bnd jmp *0x1bcfd(%rip)        # 1cfc8 <strerror@GLIBC_2.2.5>
    12cb:	0f 1f 44 00 00       	nopl   0x0(%rax,%rax,1)

00000000000012d0 <__ctype_b_loc@plt>:
    12d0:	f3 0f 1e fa          	endbr64 
    12d4:	f2 ff 25 f5 bc 01 00 	bnd jmp *0x1bcf5(%rip)        # 1cfd0 <__ctype_b_loc@GLIBC_2.3>
    12db:	0f 1f 44 00 00       	nopl   0x0(%rax,%rax,1)

Disassembly of section .text:

00000000000012e0 <_start>:
    12e0:	f3 0f 1e fa          	endbr64 
    12e4:	31 ed                	xor    %ebp,%ebp
    12e6:	49 89 d1             	mov    %rdx,%r9
    12e9:	5e                   	pop    %rsi
    12ea:	48 89 e2             	mov    %rsp,%rdx
    12ed:	48 83 e4 f0          	and    $0xfffffffffffffff0,%rsp
    12f1:	50                   	push   %rax
    12f2:	54                   	push   %rsp
    12f3:	45 31 c0             	xor    %r8d,%r8d
    12f6:	31 c9                	xor    %ecx,%ecx
    12f8:	48 8d 3d 98 15 00 00 	lea    0x1598(%rip),%rdi        # 2897 <main>
    12ff:	ff 15 d3 bc 01 00    	call   *0x1bcd3(%rip)        # 1cfd8 <__libc_start_main@GLIBC_2.34>
    1305:	f4                   	hlt    
    1306:	66 2e 0f 1f 84 00 00 	cs nopw 0x0(%rax,%rax,1)
    130d:	00 00 00 

0000000000001310 <deregister_tm_clones>:
    1310:	48 8d 3d c9 c9 01 00 	lea    0x1c9c9(%rip),%rdi        # 1dce0 <stderr@GLIBC_2.2.5>
    1317:	48 8d 05 c2 c9 01 00 	lea    0x1c9c2(%rip),%rax        # 1dce0 <stderr@GLIBC_2.2.5>
    131e:	48 39 f8             	cmp    %rdi,%rax
    1321:	74 15                	je     1338 <deregister_tm_clones+0x28>
    1323:	48 8b 05 b6 bc 01 00 	mov    0x1bcb6(%rip),%rax        # 1cfe0 <_ITM_deregisterTMCloneTable@Base>
    132a:	48 85 c0             	test   %rax,%rax
    132d:	74 09                	je     1338 <deregister_tm_clones+0x28>
    132f:	ff e0                	jmp    *%rax
    1331:	0f 1f 80 00 00 00 00 	nopl   0x0(%rax)
    1338:	c3                   	ret    
    1339:	0f 1f 80 00 00 00 00 	nopl   0x0(%rax)

0000000000001340 <register_tm_clones>:
    1340:	48 8d 3d 99 c9 01 00 	lea    0x1c999(%rip),%rdi        # 1dce0 <stderr@GLIBC_2.2.5>
    1347:	48 8d 35 92 c9 01 00 	lea    0x1c992(%rip),%rsi        # 1dce0 <stderr@GLIBC_2.2.5>
    134e:	48 29 fe             	sub    %rdi,%rsi
    1351:	48 89 f0             	mov    %rsi,%rax
    1354:	48 c1 ee 3f          	shr    $0x3f,%rsi
    1358:	48 c1 f8 03          	sar    $0x3,%rax
    135c:	48 01 c6             	add    %rax,%rsi
    135f:	48 d1 fe             	sar    %rsi
    1362:	74 14                	je     1378 <register_tm_clones+0x38>
    1364:	48 8b 05 85 bc 01 00 	mov    0x1bc85(%rip),%rax        # 1cff0 <_ITM_registerTMCloneTable@Base>
    136b:	48 85 c0             	test   %rax,%rax
    136e:	74 08                	je     1378 <register_tm_clones+0x38>
    1370:	ff e0                	jmp    *%rax
    1372:	66 0f 1f 44 00 00    	nopw   0x0(%rax,%rax,1)
    1378:	c3                   	ret    
    1379:	0f 1f 80 00 00 00 00 	nopl   0x0(%rax)

0000000000001380 <__do_global_dtors_aux>:
    1380:	f3 0f 1e fa          	endbr64 
    1384:	80 3d 5d c9 01 00 00 	cmpb   $0x0,0x1c95d(%rip)        # 1dce8 <completed.0>
    138b:	75 2b                	jne    13b8 <__do_global_dtors_aux+0x38>
    138d:	55                   	push   %rbp
    138e:	48 83 3d 62 bc 01 00 	cmpq   $0x0,0x1bc62(%rip)        # 1cff8 <__cxa_finalize@GLIBC_2.2.5>
    1395:	00 
    1396:	48 89 e5             	mov    %rsp,%rbp
    1399:	74 0c                	je     13a7 <__do_global_dtors_aux+0x27>
    139b:	48 8b 3d 66 bc 01 00 	mov    0x1bc66(%rip),%rdi        # 1d008 <__dso_handle>
    13a2:	e8 d9 fd ff ff       	call   1180 <__cxa_finalize@plt>
    13a7:	e8 64 ff ff ff       	call   1310 <deregister_tm_clones>
    13ac:	c6 05 35 c9 01 00 01 	movb   $0x1,0x1c935(%rip)        # 1dce8 <completed.0>
    13b3:	5d                   	pop    %rbp
    13b4:	c3                   	ret    
    13b5:	0f 1f 00             	nopl   (%rax)
    13b8:	c3                   	ret    
    13b9:	0f 1f 80 00 00 00 00 	nopl   0x0(%rax)

00000000000013c0 <frame_dummy>:
    13c0:	f3 0f 1e fa          	endbr64 
    13c4:	e9 77 ff ff ff       	jmp    1340 <register_tm_clones>

00000000000013c9 <ran>:
    13c9:	f3 0f 1e fa          	endbr64 
    13cd:	55                   	push   %rbp
    13ce:	48 89 e5             	mov    %rsp,%rbp
    13d1:	48 8b 0d 70 c9 01 00 	mov    0x1c970(%rip),%rcx        # 1dd48 <seedi>
    13d8:	48 ba 79 fb e3 1f af 	movabs $0x41a705af1fe3fb79,%rdx
    13df:	05 a7 41 
    13e2:	48 89 c8             	mov    %rcx,%rax
    13e5:	48 f7 ea             	imul   %rdx
    13e8:	48 89 d0             	mov    %rdx,%rax
    13eb:	48 c1 f8 0f          	sar    $0xf,%rax
    13ef:	48 c1 f9 3f          	sar    $0x3f,%rcx
    13f3:	48 89 ca             	mov    %rcx,%rdx
    13f6:	48 29 d0             	sub    %rdx,%rax
    13f9:	48 89 45 e8          	mov    %rax,-0x18(%rbp)
    13fd:	48 8b 0d 44 c9 01 00 	mov    0x1c944(%rip),%rcx        # 1dd48 <seedi>
    1404:	48 ba 79 fb e3 1f af 	movabs $0x41a705af1fe3fb79,%rdx
    140b:	05 a7 41 
    140e:	48 89 c8             	mov    %rcx,%rax
    1411:	48 f7 ea             	imul   %rdx
    1414:	48 89 d0             	mov    %rdx,%rax
    1417:	48 c1 f8 0f          	sar    $0xf,%rax
    141b:	48 89 ca             	mov    %rcx,%rdx
    141e:	48 c1 fa 3f          	sar    $0x3f,%rdx
    1422:	48 29 d0             	sub    %rdx,%rax
    1425:	48 89 45 f0          	mov    %rax,-0x10(%rbp)
    1429:	48 8b 45 f0          	mov    -0x10(%rbp),%rax
    142d:	48 69 d0 1d f3 01 00 	imul   $0x1f31d,%rax,%rdx
    1434:	48 89 c8             	mov    %rcx,%rax
    1437:	48 29 d0             	sub    %rdx,%rax
    143a:	48 89 45 f0          	mov    %rax,-0x10(%rbp)
    143e:	48 8b 45 f0          	mov    -0x10(%rbp),%rax
    1442:	48 69 d0 a7 41 00 00 	imul   $0x41a7,%rax,%rdx
    1449:	48 8b 45 e8          	mov    -0x18(%rbp),%rax
    144d:	48 69 c0 ec f4 ff ff 	imul   $0xfffffffffffff4ec,%rax,%rax
    1454:	48 01 d0             	add    %rdx,%rax
    1457:	48 89 45 f8          	mov    %rax,-0x8(%rbp)
    145b:	48 83 7d f8 00       	cmpq   $0x0,-0x8(%rbp)
    1460:	7e 0d                	jle    146f <ran+0xa6>
    1462:	48 8b 45 f8          	mov    -0x8(%rbp),%rax
    1466:	48 89 05 db c8 01 00 	mov    %rax,0x1c8db(%rip)        # 1dd48 <seedi>
    146d:	eb 11                	jmp    1480 <ran+0xb7>
    146f:	48 8b 45 f8          	mov    -0x8(%rbp),%rax
    1473:	48 05 ff ff ff 7f    	add    $0x7fffffff,%rax
    1479:	48 89 05 c8 c8 01 00 	mov    %rax,0x1c8c8(%rip)        # 1dd48 <seedi>
    1480:	48 8b 05 c1 c8 01 00 	mov    0x1c8c1(%rip),%rax        # 1dd48 <seedi>
    1487:	66 0f ef c0          	pxor   %xmm0,%xmm0
    148b:	f3 48 0f 2a c0       	cvtsi2ss %rax,%xmm0
    1490:	f3 0f 10 0d 40 7f 01 	movss  0x17f40(%rip),%xmm1        # 193d8 <_IO_stdin_used+0x3d8>
    1497:	00 
    1498:	f3 0f 5e c1          	divss  %xmm1,%xmm0
    149c:	f3 0f 5a c0          	cvtss2sd %xmm0,%xmm0
    14a0:	66 48 0f 7e c0       	movq   %xmm0,%rax
    14a5:	66 48 0f 6e c0       	movq   %rax,%xmm0
    14aa:	5d                   	pop    %rbp
    14ab:	c3                   	ret    

00000000000014ac <spec_init>:
    14ac:	f3 0f 1e fa          	endbr64 
    14b0:	55                   	push   %rbp
    14b1:	48 89 e5             	mov    %rsp,%rbp
    14b4:	48 83 ec 10          	sub    $0x10,%rsp
    14b8:	8b 05 52 bb 01 00    	mov    0x1bb52(%rip),%eax        # 1d010 <dbglvl>
    14be:	83 f8 03             	cmp    $0x3,%eax
    14c1:	7e 0f                	jle    14d2 <spec_init+0x26>
    14c3:	48 8d 05 3e 7b 01 00 	lea    0x17b3e(%rip),%rax        # 19008 <_IO_stdin_used+0x8>
    14ca:	48 89 c7             	mov    %rax,%rdi
    14cd:	e8 de fc ff ff       	call   11b0 <puts@plt>
    14d2:	c7 45 f4 00 00 00 00 	movl   $0x0,-0xc(%rbp)
    14d9:	e9 32 01 00 00       	jmp    1610 <spec_init+0x164>
    14de:	8b 45 f4             	mov    -0xc(%rbp),%eax
    14e1:	48 63 d0             	movslq %eax,%rdx
    14e4:	48 89 d0             	mov    %rdx,%rax
    14e7:	48 01 c0             	add    %rax,%rax
    14ea:	48 01 d0             	add    %rdx,%rax
    14ed:	48 c1 e0 03          	shl    $0x3,%rax
    14f1:	48 89 c2             	mov    %rax,%rdx
    14f4:	48 8d 05 05 c8 01 00 	lea    0x1c805(%rip),%rax        # 1dd00 <spec_fd>
    14fb:	8b 04 02             	mov    (%rdx,%rax,1),%eax
    14fe:	89 45 fc             	mov    %eax,-0x4(%rbp)
    1501:	8b 45 f4             	mov    -0xc(%rbp),%eax
    1504:	48 63 d0             	movslq %eax,%rdx
    1507:	48 89 d0             	mov    %rdx,%rax
    150a:	48 01 c0             	add    %rax,%rax
    150d:	48 01 d0             	add    %rdx,%rax
    1510:	48 c1 e0 03          	shl    $0x3,%rax
    1514:	48 8d 15 e5 c7 01 00 	lea    0x1c7e5(%rip),%rdx        # 1dd00 <spec_fd>
    151b:	48 01 d0             	add    %rdx,%rax
    151e:	ba 18 00 00 00       	mov    $0x18,%edx
    1523:	be 00 00 00 00       	mov    $0x0,%esi
    1528:	48 89 c7             	mov    %rax,%rdi
    152b:	e8 c0 fc ff ff       	call   11f0 <memset@plt>
    1530:	8b 45 f4             	mov    -0xc(%rbp),%eax
    1533:	48 63 d0             	movslq %eax,%rdx
    1536:	48 89 d0             	mov    %rdx,%rax
    1539:	48 01 c0             	add    %rax,%rax
    153c:	48 01 d0             	add    %rdx,%rax
    153f:	48 c1 e0 03          	shl    $0x3,%rax
    1543:	48 89 c1             	mov    %rax,%rcx
    1546:	48 8d 15 b3 c7 01 00 	lea    0x1c7b3(%rip),%rdx        # 1dd00 <spec_fd>
    154d:	8b 45 fc             	mov    -0x4(%rbp),%eax
    1550:	89 04 11             	mov    %eax,(%rcx,%rdx,1)
    1553:	8b 45 fc             	mov    -0x4(%rbp),%eax
    1556:	05 00 00 10 00       	add    $0x100000,%eax
    155b:	48 98                	cltq   
    155d:	48 89 c7             	mov    %rax,%rdi
    1560:	e8 eb fc ff ff       	call   1250 <malloc@plt>
    1565:	48 89 c1             	mov    %rax,%rcx
    1568:	8b 45 f4             	mov    -0xc(%rbp),%eax
    156b:	48 63 d0             	movslq %eax,%rdx
    156e:	48 89 d0             	mov    %rdx,%rax
    1571:	48 01 c0             	add    %rax,%rax
    1574:	48 01 d0             	add    %rdx,%rax
    1577:	48 c1 e0 03          	shl    $0x3,%rax
    157b:	48 89 c2             	mov    %rax,%rdx
    157e:	48 8d 05 8b c7 01 00 	lea    0x1c78b(%rip),%rax        # 1dd10 <spec_fd+0x10>
    1585:	48 89 0c 02          	mov    %rcx,(%rdx,%rax,1)
    1589:	8b 45 f4             	mov    -0xc(%rbp),%eax
    158c:	48 63 d0             	movslq %eax,%rdx
    158f:	48 89 d0             	mov    %rdx,%rax
    1592:	48 01 c0             	add    %rax,%rax
    1595:	48 01 d0             	add    %rdx,%rax
    1598:	48 c1 e0 03          	shl    $0x3,%rax
    159c:	48 89 c2             	mov    %rax,%rdx
    159f:	48 8d 05 6a c7 01 00 	lea    0x1c76a(%rip),%rax        # 1dd10 <spec_fd+0x10>
    15a6:	48 8b 04 02          	mov    (%rdx,%rax,1),%rax
    15aa:	48 85 c0             	test   %rax,%rax
    15ad:	75 19                	jne    15c8 <spec_init+0x11c>
    15af:	48 8d 05 62 7a 01 00 	lea    0x17a62(%rip),%rax        # 19018 <_IO_stdin_used+0x18>
    15b6:	48 89 c7             	mov    %rax,%rdi
    15b9:	e8 f2 fb ff ff       	call   11b0 <puts@plt>
    15be:	bf 00 00 00 00       	mov    $0x0,%edi
    15c3:	e8 d8 fc ff ff       	call   12a0 <exit@plt>
    15c8:	c7 45 f8 00 00 00 00 	movl   $0x0,-0x8(%rbp)
    15cf:	eb 33                	jmp    1604 <spec_init+0x158>
    15d1:	8b 45 f4             	mov    -0xc(%rbp),%eax
    15d4:	48 63 d0             	movslq %eax,%rdx
    15d7:	48 89 d0             	mov    %rdx,%rax
    15da:	48 01 c0             	add    %rax,%rax
    15dd:	48 01 d0             	add    %rdx,%rax
    15e0:	48 c1 e0 03          	shl    $0x3,%rax
    15e4:	48 89 c2             	mov    %rax,%rdx
    15e7:	48 8d 05 22 c7 01 00 	lea    0x1c722(%rip),%rax        # 1dd10 <spec_fd+0x10>
    15ee:	48 8b 14 02          	mov    (%rdx,%rax,1),%rdx
    15f2:	8b 45 f8             	mov    -0x8(%rbp),%eax
    15f5:	48 98                	cltq   
    15f7:	48 01 d0             	add    %rdx,%rax
    15fa:	c6 00 00             	movb   $0x0,(%rax)
    15fd:	81 45 f8 00 04 00 00 	addl   $0x400,-0x8(%rbp)
    1604:	8b 45 f8             	mov    -0x8(%rbp),%eax
    1607:	3b 45 fc             	cmp    -0x4(%rbp),%eax
    160a:	7c c5                	jl     15d1 <spec_init+0x125>
    160c:	83 45 f4 01          	addl   $0x1,-0xc(%rbp)
    1610:	83 7d f4 02          	cmpl   $0x2,-0xc(%rbp)
    1614:	0f 8e c4 fe ff ff    	jle    14de <spec_init+0x32>
    161a:	b8 00 00 00 00       	mov    $0x0,%eax
    161f:	c9                   	leave  
    1620:	c3                   	ret    

0000000000001621 <spec_random_load>:
    1621:	f3 0f 1e fa          	endbr64 
    1625:	55                   	push   %rbp
    1626:	48 89 e5             	mov    %rsp,%rbp
    1629:	4c 8d 9c 24 00 00 c0 	lea    -0x400000(%rsp),%r11
    1630:	ff 
    1631:	48 81 ec 00 10 00 00 	sub    $0x1000,%rsp
    1638:	48 83 0c 24 00       	orq    $0x0,(%rsp)
    163d:	4c 39 dc             	cmp    %r11,%rsp
    1640:	75 ef                	jne    1631 <spec_random_load+0x10>
    1642:	48 83 ec 30          	sub    $0x30,%rsp
    1646:	89 bd dc ff bf ff    	mov    %edi,-0x400024(%rbp)
    164c:	64 48 8b 04 25 28 00 	mov    %fs:0x28,%rax
    1653:	00 00 
    1655:	48 89 45 f8          	mov    %rax,-0x8(%rbp)
    1659:	31 c0                	xor    %eax,%eax
    165b:	8b 05 af b9 01 00    	mov    0x1b9af(%rip),%eax        # 1d010 <dbglvl>
    1661:	83 f8 04             	cmp    $0x4,%eax
    1664:	7e 0f                	jle    1675 <spec_random_load+0x54>
    1666:	48 8d 05 ce 79 01 00 	lea    0x179ce(%rip),%rax        # 1903b <_IO_stdin_used+0x3b>
    166d:	48 89 c7             	mov    %rax,%rdi
    1670:	e8 3b fb ff ff       	call   11b0 <puts@plt>
    1675:	c7 85 e8 ff bf ff 00 	movl   $0x0,-0x400018(%rbp)
    167c:	00 00 00 
    167f:	e9 8c 00 00 00       	jmp    1710 <spec_random_load+0xef>
    1684:	8b 05 86 b9 01 00    	mov    0x1b986(%rip),%eax        # 1d010 <dbglvl>
    168a:	83 f8 05             	cmp    $0x5,%eax
    168d:	7e 1c                	jle    16ab <spec_random_load+0x8a>
    168f:	8b 85 e8 ff bf ff    	mov    -0x400018(%rbp),%eax
    1695:	89 c6                	mov    %eax,%esi
    1697:	48 8d 05 ad 79 01 00 	lea    0x179ad(%rip),%rax        # 1904b <_IO_stdin_used+0x4b>
    169e:	48 89 c7             	mov    %rax,%rdi
    16a1:	b8 00 00 00 00       	mov    $0x0,%eax
    16a6:	e8 35 fb ff ff       	call   11e0 <printf@plt>
    16ab:	c7 85 ec ff bf ff 00 	movl   $0x0,-0x400014(%rbp)
    16b2:	00 00 00 
    16b5:	eb 46                	jmp    16fd <spec_random_load+0xdc>
    16b7:	b8 00 00 00 00       	mov    $0x0,%eax
    16bc:	e8 08 fd ff ff       	call   13c9 <ran>
    16c1:	f2 0f 10 0d 17 7d 01 	movsd  0x17d17(%rip),%xmm1        # 193e0 <_IO_stdin_used+0x3e0>
    16c8:	00 
    16c9:	f2 0f 59 c1          	mulsd  %xmm1,%xmm0
    16cd:	f2 0f 2c c0          	cvttsd2si %xmm0,%eax
    16d1:	89 c2                	mov    %eax,%edx
    16d3:	8b 85 ec ff bf ff    	mov    -0x400014(%rbp),%eax
    16d9:	48 63 c8             	movslq %eax,%rcx
    16dc:	8b 85 e8 ff bf ff    	mov    -0x400018(%rbp),%eax
    16e2:	48 98                	cltq   
    16e4:	48 c1 e0 11          	shl    $0x11,%rax
    16e8:	48 01 e8             	add    %rbp,%rax
    16eb:	48 01 c8             	add    %rcx,%rax
    16ee:	48 2d 10 00 40 00    	sub    $0x400010,%rax
    16f4:	88 10                	mov    %dl,(%rax)
    16f6:	83 85 ec ff bf ff 01 	addl   $0x1,-0x400014(%rbp)
    16fd:	81 bd ec ff bf ff ff 	cmpl   $0x1ffff,-0x400014(%rbp)
    1704:	ff 01 00 
    1707:	7e ae                	jle    16b7 <spec_random_load+0x96>
    1709:	83 85 e8 ff bf ff 01 	addl   $0x1,-0x400018(%rbp)
    1710:	83 bd e8 ff bf ff 1f 	cmpl   $0x1f,-0x400018(%rbp)
    1717:	0f 8e 67 ff ff ff    	jle    1684 <spec_random_load+0x63>
    171d:	8b 05 ed b8 01 00    	mov    0x1b8ed(%rip),%eax        # 1d010 <dbglvl>
    1723:	83 f8 04             	cmp    $0x4,%eax
    1726:	7e 0f                	jle    1737 <spec_random_load+0x116>
    1728:	48 8d 05 2f 79 01 00 	lea    0x1792f(%rip),%rax        # 1905e <_IO_stdin_used+0x5e>
    172f:	48 89 c7             	mov    %rax,%rdi
    1732:	e8 79 fa ff ff       	call   11b0 <puts@plt>
    1737:	c7 85 e8 ff bf ff 00 	movl   $0x0,-0x400018(%rbp)
    173e:	00 00 00 
    1741:	eb 74                	jmp    17b7 <spec_random_load+0x196>
    1743:	b8 00 00 00 00       	mov    $0x0,%eax
    1748:	e8 7c fc ff ff       	call   13c9 <ran>
    174d:	f2 0f 10 0d 93 7c 01 	movsd  0x17c93(%rip),%xmm1        # 193e8 <_IO_stdin_used+0x3e8>
    1754:	00 
    1755:	f2 0f 59 c1          	mulsd  %xmm1,%xmm0
    1759:	f2 0f 2c c0          	cvttsd2si %xmm0,%eax
    175d:	48 8d 95 f0 ff bf ff 	lea    -0x400010(%rbp),%rdx
    1764:	48 98                	cltq   
    1766:	48 c1 e0 11          	shl    $0x11,%rax
    176a:	48 8d 0c 02          	lea    (%rdx,%rax,1),%rcx
    176e:	8b 85 dc ff bf ff    	mov    -0x400024(%rbp),%eax
    1774:	48 63 d0             	movslq %eax,%rdx
    1777:	48 89 d0             	mov    %rdx,%rax
    177a:	48 01 c0             	add    %rax,%rax
    177d:	48 01 d0             	add    %rdx,%rax
    1780:	48 c1 e0 03          	shl    $0x3,%rax
    1784:	48 89 c2             	mov    %rax,%rdx
    1787:	48 8d 05 82 c5 01 00 	lea    0x1c582(%rip),%rax        # 1dd10 <spec_fd+0x10>
    178e:	48 8b 14 02          	mov    (%rdx,%rax,1),%rdx
    1792:	8b 85 e8 ff bf ff    	mov    -0x400018(%rbp),%eax
    1798:	48 98                	cltq   
    179a:	48 01 d0             	add    %rdx,%rax
    179d:	ba 00 00 02 00       	mov    $0x20000,%edx
    17a2:	48 89 ce             	mov    %rcx,%rsi
    17a5:	48 89 c7             	mov    %rax,%rdi
    17a8:	e8 93 fa ff ff       	call   1240 <memcpy@plt>
    17ad:	81 85 e8 ff bf ff 00 	addl   $0x20000,-0x400018(%rbp)
    17b4:	00 02 00 
    17b7:	8b 85 dc ff bf ff    	mov    -0x400024(%rbp),%eax
    17bd:	48 63 d0             	movslq %eax,%rdx
    17c0:	48 89 d0             	mov    %rdx,%rax
    17c3:	48 01 c0             	add    %rax,%rax
    17c6:	48 01 d0             	add    %rdx,%rax
    17c9:	48 c1 e0 03          	shl    $0x3,%rax
    17cd:	48 89 c2             	mov    %rax,%rdx
    17d0:	48 8d 05 29 c5 01 00 	lea    0x1c529(%rip),%rax        # 1dd00 <spec_fd>
    17d7:	8b 04 02             	mov    (%rdx,%rax,1),%eax
    17da:	39 85 e8 ff bf ff    	cmp    %eax,-0x400018(%rbp)
    17e0:	0f 8c 5d ff ff ff    	jl     1743 <spec_random_load+0x122>
    17e6:	8b 85 dc ff bf ff    	mov    -0x400024(%rbp),%eax
    17ec:	48 63 d0             	movslq %eax,%rdx
    17ef:	48 89 d0             	mov    %rdx,%rax
    17f2:	48 01 c0             	add    %rax,%rax
    17f5:	48 01 d0             	add    %rdx,%rax
    17f8:	48 c1 e0 03          	shl    $0x3,%rax
    17fc:	48 89 c2             	mov    %rax,%rdx
    17ff:	48 8d 05 fe c4 01 00 	lea    0x1c4fe(%rip),%rax        # 1dd04 <spec_fd+0x4>
    1806:	c7 04 02 00 00 10 00 	movl   $0x100000,(%rdx,%rax,1)
    180d:	b8 00 00 00 00       	mov    $0x0,%eax
    1812:	48 8b 55 f8          	mov    -0x8(%rbp),%rdx
    1816:	64 48 2b 14 25 28 00 	sub    %fs:0x28,%rdx
    181d:	00 00 
    181f:	74 05                	je     1826 <spec_random_load+0x205>
    1821:	e8 aa f9 ff ff       	call   11d0 <__stack_chk_fail@plt>
    1826:	c9                   	leave  
    1827:	c3                   	ret    

0000000000001828 <spec_load>:
    1828:	f3 0f 1e fa          	endbr64 
    182c:	55                   	push   %rbp
    182d:	48 89 e5             	mov    %rsp,%rbp
    1830:	48 83 ec 20          	sub    $0x20,%rsp
    1834:	89 7d ec             	mov    %edi,-0x14(%rbp)
    1837:	48 89 75 e0          	mov    %rsi,-0x20(%rbp)
    183b:	89 55 e8             	mov    %edx,-0x18(%rbp)
    183e:	48 8b 45 e0          	mov    -0x20(%rbp),%rax
    1842:	be 00 00 00 00       	mov    $0x0,%esi
    1847:	48 89 c7             	mov    %rax,%rdi
    184a:	b8 00 00 00 00       	mov    $0x0,%eax
    184f:	e8 0c fa ff ff       	call   1260 <open@plt>
    1854:	89 45 f8             	mov    %eax,-0x8(%rbp)
    1857:	83 7d f8 00          	cmpl   $0x0,-0x8(%rbp)
    185b:	79 3a                	jns    1897 <spec_load+0x6f>
    185d:	e8 3e f9 ff ff       	call   11a0 <__errno_location@plt>
    1862:	8b 00                	mov    (%rax),%eax
    1864:	89 c7                	mov    %eax,%edi
    1866:	e8 55 fa ff ff       	call   12c0 <strerror@plt>
    186b:	48 89 c1             	mov    %rax,%rcx
    186e:	48 8b 05 6b c4 01 00 	mov    0x1c46b(%rip),%rax        # 1dce0 <stderr@GLIBC_2.2.5>
    1875:	48 8b 55 e0          	mov    -0x20(%rbp),%rdx
    1879:	48 8d 35 f1 77 01 00 	lea    0x177f1(%rip),%rsi        # 19071 <_IO_stdin_used+0x71>
    1880:	48 89 c7             	mov    %rax,%rdi
    1883:	b8 00 00 00 00       	mov    $0x0,%eax
    1888:	e8 a3 f9 ff ff       	call   1230 <fprintf@plt>
    188d:	bf 00 00 00 00       	mov    $0x0,%edi
    1892:	e8 09 fa ff ff       	call   12a0 <exit@plt>
    1897:	8b 45 ec             	mov    -0x14(%rbp),%eax
    189a:	48 63 d0             	movslq %eax,%rdx
    189d:	48 89 d0             	mov    %rdx,%rax
    18a0:	48 01 c0             	add    %rax,%rax
    18a3:	48 01 d0             	add    %rdx,%rax
    18a6:	48 c1 e0 03          	shl    $0x3,%rax
    18aa:	48 89 c2             	mov    %rax,%rdx
    18ad:	48 8d 05 50 c4 01 00 	lea    0x1c450(%rip),%rax        # 1dd04 <spec_fd+0x4>
    18b4:	c7 04 02 00 00 00 00 	movl   $0x0,(%rdx,%rax,1)
    18bb:	8b 45 ec             	mov    -0x14(%rbp),%eax
    18be:	48 63 d0             	movslq %eax,%rdx
    18c1:	48 89 d0             	mov    %rdx,%rax
    18c4:	48 01 c0             	add    %rax,%rax
    18c7:	48 01 d0             	add    %rdx,%rax
    18ca:	48 c1 e0 03          	shl    $0x3,%rax
    18ce:	48 89 c2             	mov    %rax,%rdx
    18d1:	48 8d 05 2c c4 01 00 	lea    0x1c42c(%rip),%rax        # 1dd04 <spec_fd+0x4>
    18d8:	8b 14 02             	mov    (%rdx,%rax,1),%edx
    18db:	8b 45 ec             	mov    -0x14(%rbp),%eax
    18de:	48 63 c8             	movslq %eax,%rcx
    18e1:	48 89 c8             	mov    %rcx,%rax
    18e4:	48 01 c0             	add    %rax,%rax
    18e7:	48 01 c8             	add    %rcx,%rax
    18ea:	48 c1 e0 03          	shl    $0x3,%rax
    18ee:	48 89 c1             	mov    %rax,%rcx
    18f1:	48 8d 05 10 c4 01 00 	lea    0x1c410(%rip),%rax        # 1dd08 <spec_fd+0x8>
    18f8:	89 14 01             	mov    %edx,(%rcx,%rax,1)
    18fb:	c7 45 f0 00 00 00 00 	movl   $0x0,-0x10(%rbp)
    1902:	e9 d5 00 00 00       	jmp    19dc <spec_load+0x1b4>
    1907:	8b 45 ec             	mov    -0x14(%rbp),%eax
    190a:	48 63 d0             	movslq %eax,%rdx
    190d:	48 89 d0             	mov    %rdx,%rax
    1910:	48 01 c0             	add    %rax,%rax
    1913:	48 01 d0             	add    %rdx,%rax
    1916:	48 c1 e0 03          	shl    $0x3,%rax
    191a:	48 89 c2             	mov    %rax,%rdx
    191d:	48 8d 05 ec c3 01 00 	lea    0x1c3ec(%rip),%rax        # 1dd10 <spec_fd+0x10>
    1924:	48 8b 14 02          	mov    (%rdx,%rax,1),%rdx
    1928:	8b 45 f0             	mov    -0x10(%rbp),%eax
    192b:	48 98                	cltq   
    192d:	48 8d 0c 02          	lea    (%rdx,%rax,1),%rcx
    1931:	8b 45 f8             	mov    -0x8(%rbp),%eax
    1934:	ba 00 00 02 00       	mov    $0x20000,%edx
    1939:	48 89 ce             	mov    %rcx,%rsi
    193c:	89 c7                	mov    %eax,%edi
    193e:	e8 dd f8 ff ff       	call   1220 <read@plt>
    1943:	89 45 fc             	mov    %eax,-0x4(%rbp)
    1946:	83 7d fc 00          	cmpl   $0x0,-0x4(%rbp)
    194a:	0f 84 9a 00 00 00    	je     19ea <spec_load+0x1c2>
    1950:	83 7d fc 00          	cmpl   $0x0,-0x4(%rbp)
    1954:	79 3a                	jns    1990 <spec_load+0x168>
    1956:	e8 45 f8 ff ff       	call   11a0 <__errno_location@plt>
    195b:	8b 00                	mov    (%rax),%eax
    195d:	89 c7                	mov    %eax,%edi
    195f:	e8 5c f9 ff ff       	call   12c0 <strerror@plt>
    1964:	48 89 c1             	mov    %rax,%rcx
    1967:	48 8b 05 72 c3 01 00 	mov    0x1c372(%rip),%rax        # 1dce0 <stderr@GLIBC_2.2.5>
    196e:	48 8b 55 e0          	mov    -0x20(%rbp),%rdx
    1972:	48 8d 35 10 77 01 00 	lea    0x17710(%rip),%rsi        # 19089 <_IO_stdin_used+0x89>
    1979:	48 89 c7             	mov    %rax,%rdi
    197c:	b8 00 00 00 00       	mov    $0x0,%eax
    1981:	e8 aa f8 ff ff       	call   1230 <fprintf@plt>
    1986:	bf 00 00 00 00       	mov    $0x0,%edi
    198b:	e8 10 f9 ff ff       	call   12a0 <exit@plt>
    1990:	8b 45 ec             	mov    -0x14(%rbp),%eax
    1993:	48 63 d0             	movslq %eax,%rdx
    1996:	48 89 d0             	mov    %rdx,%rax
    1999:	48 01 c0             	add    %rax,%rax
    199c:	48 01 d0             	add    %rdx,%rax
    199f:	48 c1 e0 03          	shl    $0x3,%rax
    19a3:	48 89 c2             	mov    %rax,%rdx
    19a6:	48 8d 05 57 c3 01 00 	lea    0x1c357(%rip),%rax        # 1dd04 <spec_fd+0x4>
    19ad:	8b 14 02             	mov    (%rdx,%rax,1),%edx
    19b0:	8b 45 fc             	mov    -0x4(%rbp),%eax
    19b3:	8d 0c 02             	lea    (%rdx,%rax,1),%ecx
    19b6:	8b 45 ec             	mov    -0x14(%rbp),%eax
    19b9:	48 63 d0             	movslq %eax,%rdx
    19bc:	48 89 d0             	mov    %rdx,%rax
    19bf:	48 01 c0             	add    %rax,%rax
    19c2:	48 01 d0             	add    %rdx,%rax
    19c5:	48 c1 e0 03          	shl    $0x3,%rax
    19c9:	48 89 c2             	mov    %rax,%rdx
    19cc:	48 8d 05 31 c3 01 00 	lea    0x1c331(%rip),%rax        # 1dd04 <spec_fd+0x4>
    19d3:	89 0c 02             	mov    %ecx,(%rdx,%rax,1)
    19d6:	8b 45 fc             	mov    -0x4(%rbp),%eax
    19d9:	01 45 f0             	add    %eax,-0x10(%rbp)
    19dc:	8b 45 f0             	mov    -0x10(%rbp),%eax
    19df:	3b 45 e8             	cmp    -0x18(%rbp),%eax
    19e2:	0f 8c 1f ff ff ff    	jl     1907 <spec_load+0xdf>
    19e8:	eb 01                	jmp    19eb <spec_load+0x1c3>
    19ea:	90                   	nop
    19eb:	8b 45 f8             	mov    -0x8(%rbp),%eax
    19ee:	89 c7                	mov    %eax,%edi
    19f0:	e8 0b f8 ff ff       	call   1200 <close@plt>
    19f5:	e9 52 01 00 00       	jmp    1b4c <spec_load+0x324>
    19fa:	8b 45 ec             	mov    -0x14(%rbp),%eax
    19fd:	48 63 d0             	movslq %eax,%rdx
    1a00:	48 89 d0             	mov    %rdx,%rax
    1a03:	48 01 c0             	add    %rax,%rax
    1a06:	48 01 d0             	add    %rdx,%rax
    1a09:	48 c1 e0 03          	shl    $0x3,%rax
    1a0d:	48 89 c2             	mov    %rax,%rdx
    1a10:	48 8d 05 ed c2 01 00 	lea    0x1c2ed(%rip),%rax        # 1dd04 <spec_fd+0x4>
    1a17:	8b 14 02             	mov    (%rdx,%rax,1),%edx
    1a1a:	8b 45 e8             	mov    -0x18(%rbp),%eax
    1a1d:	29 d0                	sub    %edx,%eax
    1a1f:	89 45 f4             	mov    %eax,-0xc(%rbp)
    1a22:	8b 45 ec             	mov    -0x14(%rbp),%eax
    1a25:	48 63 d0             	movslq %eax,%rdx
    1a28:	48 89 d0             	mov    %rdx,%rax
    1a2b:	48 01 c0             	add    %rax,%rax
    1a2e:	48 01 d0             	add    %rdx,%rax
    1a31:	48 c1 e0 03          	shl    $0x3,%rax
    1a35:	48 89 c2             	mov    %rax,%rdx
    1a38:	48 8d 05 c5 c2 01 00 	lea    0x1c2c5(%rip),%rax        # 1dd04 <spec_fd+0x4>
    1a3f:	8b 04 02             	mov    (%rdx,%rax,1),%eax
    1a42:	39 45 f4             	cmp    %eax,-0xc(%rbp)
    1a45:	7e 23                	jle    1a6a <spec_load+0x242>
    1a47:	8b 45 ec             	mov    -0x14(%rbp),%eax
    1a4a:	48 63 d0             	movslq %eax,%rdx
    1a4d:	48 89 d0             	mov    %rdx,%rax
    1a50:	48 01 c0             	add    %rax,%rax
    1a53:	48 01 d0             	add    %rdx,%rax
    1a56:	48 c1 e0 03          	shl    $0x3,%rax
    1a5a:	48 89 c2             	mov    %rax,%rdx
    1a5d:	48 8d 05 a0 c2 01 00 	lea    0x1c2a0(%rip),%rax        # 1dd04 <spec_fd+0x4>
    1a64:	8b 04 02             	mov    (%rdx,%rax,1),%eax
    1a67:	89 45 f4             	mov    %eax,-0xc(%rbp)
    1a6a:	8b 05 a0 b5 01 00    	mov    0x1b5a0(%rip),%eax        # 1d010 <dbglvl>
    1a70:	83 f8 03             	cmp    $0x3,%eax
    1a73:	7e 19                	jle    1a8e <spec_load+0x266>
    1a75:	8b 45 f4             	mov    -0xc(%rbp),%eax
    1a78:	89 c6                	mov    %eax,%esi
    1a7a:	48 8d 05 23 76 01 00 	lea    0x17623(%rip),%rax        # 190a4 <_IO_stdin_used+0xa4>
    1a81:	48 89 c7             	mov    %rax,%rdi
    1a84:	b8 00 00 00 00       	mov    $0x0,%eax
    1a89:	e8 52 f7 ff ff       	call   11e0 <printf@plt>
    1a8e:	8b 45 f4             	mov    -0xc(%rbp),%eax
    1a91:	48 63 d0             	movslq %eax,%rdx
    1a94:	8b 45 ec             	mov    -0x14(%rbp),%eax
    1a97:	48 63 c8             	movslq %eax,%rcx
    1a9a:	48 89 c8             	mov    %rcx,%rax
    1a9d:	48 01 c0             	add    %rax,%rax
    1aa0:	48 01 c8             	add    %rcx,%rax
    1aa3:	48 c1 e0 03          	shl    $0x3,%rax
    1aa7:	48 89 c1             	mov    %rax,%rcx
    1aaa:	48 8d 05 5f c2 01 00 	lea    0x1c25f(%rip),%rax        # 1dd10 <spec_fd+0x10>
    1ab1:	48 8b 0c 01          	mov    (%rcx,%rax,1),%rcx
    1ab5:	8b 45 ec             	mov    -0x14(%rbp),%eax
    1ab8:	48 63 f0             	movslq %eax,%rsi
    1abb:	48 89 f0             	mov    %rsi,%rax
    1abe:	48 01 c0             	add    %rax,%rax
    1ac1:	48 01 f0             	add    %rsi,%rax
    1ac4:	48 c1 e0 03          	shl    $0x3,%rax
    1ac8:	48 89 c6             	mov    %rax,%rsi
    1acb:	48 8d 05 3e c2 01 00 	lea    0x1c23e(%rip),%rax        # 1dd10 <spec_fd+0x10>
    1ad2:	48 8b 3c 06          	mov    (%rsi,%rax,1),%rdi
    1ad6:	8b 45 ec             	mov    -0x14(%rbp),%eax
    1ad9:	48 63 f0             	movslq %eax,%rsi
    1adc:	48 89 f0             	mov    %rsi,%rax
    1adf:	48 01 c0             	add    %rax,%rax
    1ae2:	48 01 f0             	add    %rsi,%rax
    1ae5:	48 c1 e0 03          	shl    $0x3,%rax
    1ae9:	48 89 c6             	mov    %rax,%rsi
    1aec:	48 8d 05 11 c2 01 00 	lea    0x1c211(%rip),%rax        # 1dd04 <spec_fd+0x4>
    1af3:	8b 04 06             	mov    (%rsi,%rax,1),%eax
    1af6:	48 98                	cltq   
    1af8:	48 01 f8             	add    %rdi,%rax
    1afb:	48 89 ce             	mov    %rcx,%rsi
    1afe:	48 89 c7             	mov    %rax,%rdi
    1b01:	e8 3a f7 ff ff       	call   1240 <memcpy@plt>
    1b06:	8b 45 ec             	mov    -0x14(%rbp),%eax
    1b09:	48 63 d0             	movslq %eax,%rdx
    1b0c:	48 89 d0             	mov    %rdx,%rax
    1b0f:	48 01 c0             	add    %rax,%rax
    1b12:	48 01 d0             	add    %rdx,%rax
    1b15:	48 c1 e0 03          	shl    $0x3,%rax
    1b19:	48 89 c2             	mov    %rax,%rdx
    1b1c:	48 8d 05 e1 c1 01 00 	lea    0x1c1e1(%rip),%rax        # 1dd04 <spec_fd+0x4>
    1b23:	8b 14 02             	mov    (%rdx,%rax,1),%edx
    1b26:	8b 45 f4             	mov    -0xc(%rbp),%eax
    1b29:	8d 0c 02             	lea    (%rdx,%rax,1),%ecx
    1b2c:	8b 45 ec             	mov    -0x14(%rbp),%eax
    1b2f:	48 63 d0             	movslq %eax,%rdx
    1b32:	48 89 d0             	mov    %rdx,%rax
    1b35:	48 01 c0             	add    %rax,%rax
    1b38:	48 01 d0             	add    %rdx,%rax
    1b3b:	48 c1 e0 03          	shl    $0x3,%rax
    1b3f:	48 89 c2             	mov    %rax,%rdx
    1b42:	48 8d 05 bb c1 01 00 	lea    0x1c1bb(%rip),%rax        # 1dd04 <spec_fd+0x4>
    1b49:	89 0c 02             	mov    %ecx,(%rdx,%rax,1)
    1b4c:	8b 45 ec             	mov    -0x14(%rbp),%eax
    1b4f:	48 63 d0             	movslq %eax,%rdx
    1b52:	48 89 d0             	mov    %rdx,%rax
    1b55:	48 01 c0             	add    %rax,%rax
    1b58:	48 01 d0             	add    %rdx,%rax
    1b5b:	48 c1 e0 03          	shl    $0x3,%rax
    1b5f:	48 89 c2             	mov    %rax,%rdx
    1b62:	48 8d 05 9b c1 01 00 	lea    0x1c19b(%rip),%rax        # 1dd04 <spec_fd+0x4>
    1b69:	8b 04 02             	mov    (%rdx,%rax,1),%eax
    1b6c:	39 45 e8             	cmp    %eax,-0x18(%rbp)
    1b6f:	0f 8f 85 fe ff ff    	jg     19fa <spec_load+0x1d2>
    1b75:	b8 00 00 00 00       	mov    $0x0,%eax
    1b7a:	c9                   	leave  
    1b7b:	c3                   	ret    

0000000000001b7c <spec_read>:
    1b7c:	f3 0f 1e fa          	endbr64 
    1b80:	55                   	push   %rbp
    1b81:	48 89 e5             	mov    %rsp,%rbp
    1b84:	48 83 ec 20          	sub    $0x20,%rsp
    1b88:	89 7d ec             	mov    %edi,-0x14(%rbp)
    1b8b:	48 89 75 e0          	mov    %rsi,-0x20(%rbp)
    1b8f:	89 55 e8             	mov    %edx,-0x18(%rbp)
    1b92:	c7 45 fc 00 00 00 00 	movl   $0x0,-0x4(%rbp)
    1b99:	8b 05 71 b4 01 00    	mov    0x1b471(%rip),%eax        # 1d010 <dbglvl>
    1b9f:	83 f8 04             	cmp    $0x4,%eax
    1ba2:	7e 20                	jle    1bc4 <spec_read+0x48>
    1ba4:	8b 4d e8             	mov    -0x18(%rbp),%ecx
    1ba7:	48 8b 55 e0          	mov    -0x20(%rbp),%rdx
    1bab:	8b 45 ec             	mov    -0x14(%rbp),%eax
    1bae:	89 c6                	mov    %eax,%esi
    1bb0:	48 8d 05 03 75 01 00 	lea    0x17503(%rip),%rax        # 190ba <_IO_stdin_used+0xba>
    1bb7:	48 89 c7             	mov    %rax,%rdi
    1bba:	b8 00 00 00 00       	mov    $0x0,%eax
    1bbf:	e8 1c f6 ff ff       	call   11e0 <printf@plt>
    1bc4:	83 7d ec 03          	cmpl   $0x3,-0x14(%rbp)
    1bc8:	7e 2b                	jle    1bf5 <spec_read+0x79>
    1bca:	48 8b 05 0f c1 01 00 	mov    0x1c10f(%rip),%rax        # 1dce0 <stderr@GLIBC_2.2.5>
    1bd1:	8b 55 ec             	mov    -0x14(%rbp),%edx
    1bd4:	48 8d 0d fd 74 01 00 	lea    0x174fd(%rip),%rcx        # 190d8 <_IO_stdin_used+0xd8>
    1bdb:	48 89 ce             	mov    %rcx,%rsi
    1bde:	48 89 c7             	mov    %rax,%rdi
    1be1:	b8 00 00 00 00       	mov    $0x0,%eax
    1be6:	e8 45 f6 ff ff       	call   1230 <fprintf@plt>
    1beb:	bf 00 00 00 00       	mov    $0x0,%edi
    1bf0:	e8 ab f6 ff ff       	call   12a0 <exit@plt>
    1bf5:	8b 45 ec             	mov    -0x14(%rbp),%eax
    1bf8:	48 63 d0             	movslq %eax,%rdx
    1bfb:	48 89 d0             	mov    %rdx,%rax
    1bfe:	48 01 c0             	add    %rax,%rax
    1c01:	48 01 d0             	add    %rdx,%rax
    1c04:	48 c1 e0 03          	shl    $0x3,%rax
    1c08:	48 89 c2             	mov    %rax,%rdx
    1c0b:	48 8d 05 f6 c0 01 00 	lea    0x1c0f6(%rip),%rax        # 1dd08 <spec_fd+0x8>
    1c12:	8b 0c 02             	mov    (%rdx,%rax,1),%ecx
    1c15:	8b 45 ec             	mov    -0x14(%rbp),%eax
    1c18:	48 63 d0             	movslq %eax,%rdx
    1c1b:	48 89 d0             	mov    %rdx,%rax
    1c1e:	48 01 c0             	add    %rax,%rax
    1c21:	48 01 d0             	add    %rdx,%rax
    1c24:	48 c1 e0 03          	shl    $0x3,%rax
    1c28:	48 89 c2             	mov    %rax,%rdx
    1c2b:	48 8d 05 d2 c0 01 00 	lea    0x1c0d2(%rip),%rax        # 1dd04 <spec_fd+0x4>
    1c32:	8b 04 02             	mov    (%rdx,%rax,1),%eax
    1c35:	39 c1                	cmp    %eax,%ecx
    1c37:	7c 24                	jl     1c5d <spec_read+0xe1>
    1c39:	8b 05 d1 b3 01 00    	mov    0x1b3d1(%rip),%eax        # 1d010 <dbglvl>
    1c3f:	83 f8 04             	cmp    $0x4,%eax
    1c42:	7e 0f                	jle    1c53 <spec_read+0xd7>
    1c44:	48 8d 05 af 74 01 00 	lea    0x174af(%rip),%rax        # 190fa <_IO_stdin_used+0xfa>
    1c4b:	48 89 c7             	mov    %rax,%rdi
    1c4e:	e8 5d f5 ff ff       	call   11b0 <puts@plt>
    1c53:	b8 ff ff ff ff       	mov    $0xffffffff,%eax
    1c58:	e9 62 01 00 00       	jmp    1dbf <spec_read+0x243>
    1c5d:	8b 45 ec             	mov    -0x14(%rbp),%eax
    1c60:	48 63 d0             	movslq %eax,%rdx
    1c63:	48 89 d0             	mov    %rdx,%rax
    1c66:	48 01 c0             	add    %rax,%rax
    1c69:	48 01 d0             	add    %rdx,%rax
    1c6c:	48 c1 e0 03          	shl    $0x3,%rax
    1c70:	48 89 c2             	mov    %rax,%rdx
    1c73:	48 8d 05 8e c0 01 00 	lea    0x1c08e(%rip),%rax        # 1dd08 <spec_fd+0x8>
    1c7a:	8b 14 02             	mov    (%rdx,%rax,1),%edx
    1c7d:	8b 45 e8             	mov    -0x18(%rbp),%eax
    1c80:	8d 0c 02             	lea    (%rdx,%rax,1),%ecx
    1c83:	8b 45 ec             	mov    -0x14(%rbp),%eax
    1c86:	48 63 d0             	movslq %eax,%rdx
    1c89:	48 89 d0             	mov    %rdx,%rax
    1c8c:	48 01 c0             	add    %rax,%rax
    1c8f:	48 01 d0             	add    %rdx,%rax
    1c92:	48 c1 e0 03          	shl    $0x3,%rax
    1c96:	48 89 c2             	mov    %rax,%rdx
    1c99:	48 8d 05 64 c0 01 00 	lea    0x1c064(%rip),%rax        # 1dd04 <spec_fd+0x4>
    1ca0:	8b 04 02             	mov    (%rdx,%rax,1),%eax
    1ca3:	39 c1                	cmp    %eax,%ecx
    1ca5:	7c 49                	jl     1cf0 <spec_read+0x174>
    1ca7:	8b 45 ec             	mov    -0x14(%rbp),%eax
    1caa:	48 63 d0             	movslq %eax,%rdx
    1cad:	48 89 d0             	mov    %rdx,%rax
    1cb0:	48 01 c0             	add    %rax,%rax
    1cb3:	48 01 d0             	add    %rdx,%rax
    1cb6:	48 c1 e0 03          	shl    $0x3,%rax
    1cba:	48 89 c2             	mov    %rax,%rdx
    1cbd:	48 8d 05 40 c0 01 00 	lea    0x1c040(%rip),%rax        # 1dd04 <spec_fd+0x4>
    1cc4:	8b 0c 02             	mov    (%rdx,%rax,1),%ecx
    1cc7:	8b 45 ec             	mov    -0x14(%rbp),%eax
    1cca:	48 63 d0             	movslq %eax,%rdx
    1ccd:	48 89 d0             	mov    %rdx,%rax
    1cd0:	48 01 c0             	add    %rax,%rax
    1cd3:	48 01 d0             	add    %rdx,%rax
    1cd6:	48 c1 e0 03          	shl    $0x3,%rax
    1cda:	48 89 c2             	mov    %rax,%rdx
    1cdd:	48 8d 05 24 c0 01 00 	lea    0x1c024(%rip),%rax        # 1dd08 <spec_fd+0x8>
    1ce4:	8b 14 02             	mov    (%rdx,%rax,1),%edx
    1ce7:	89 c8                	mov    %ecx,%eax
    1ce9:	29 d0                	sub    %edx,%eax
    1ceb:	89 45 fc             	mov    %eax,-0x4(%rbp)
    1cee:	eb 06                	jmp    1cf6 <spec_read+0x17a>
    1cf0:	8b 45 e8             	mov    -0x18(%rbp),%eax
    1cf3:	89 45 fc             	mov    %eax,-0x4(%rbp)
    1cf6:	8b 45 fc             	mov    -0x4(%rbp),%eax
    1cf9:	48 63 d0             	movslq %eax,%rdx
    1cfc:	8b 45 ec             	mov    -0x14(%rbp),%eax
    1cff:	48 63 c8             	movslq %eax,%rcx
    1d02:	48 89 c8             	mov    %rcx,%rax
    1d05:	48 01 c0             	add    %rax,%rax
    1d08:	48 01 c8             	add    %rcx,%rax
    1d0b:	48 c1 e0 03          	shl    $0x3,%rax
    1d0f:	48 89 c1             	mov    %rax,%rcx
    1d12:	48 8d 05 f7 bf 01 00 	lea    0x1bff7(%rip),%rax        # 1dd10 <spec_fd+0x10>
    1d19:	48 8b 34 01          	mov    (%rcx,%rax,1),%rsi
    1d1d:	8b 45 ec             	mov    -0x14(%rbp),%eax
    1d20:	48 63 c8             	movslq %eax,%rcx
    1d23:	48 89 c8             	mov    %rcx,%rax
    1d26:	48 01 c0             	add    %rax,%rax
    1d29:	48 01 c8             	add    %rcx,%rax
    1d2c:	48 c1 e0 03          	shl    $0x3,%rax
    1d30:	48 89 c1             	mov    %rax,%rcx
    1d33:	48 8d 05 ce bf 01 00 	lea    0x1bfce(%rip),%rax        # 1dd08 <spec_fd+0x8>
    1d3a:	8b 04 01             	mov    (%rcx,%rax,1),%eax
    1d3d:	48 98                	cltq   
    1d3f:	48 8d 0c 06          	lea    (%rsi,%rax,1),%rcx
    1d43:	48 8b 45 e0          	mov    -0x20(%rbp),%rax
    1d47:	48 89 ce             	mov    %rcx,%rsi
    1d4a:	48 89 c7             	mov    %rax,%rdi
    1d4d:	e8 ee f4 ff ff       	call   1240 <memcpy@plt>
    1d52:	8b 45 ec             	mov    -0x14(%rbp),%eax
    1d55:	48 63 d0             	movslq %eax,%rdx
    1d58:	48 89 d0             	mov    %rdx,%rax
    1d5b:	48 01 c0             	add    %rax,%rax
    1d5e:	48 01 d0             	add    %rdx,%rax
    1d61:	48 c1 e0 03          	shl    $0x3,%rax
    1d65:	48 89 c2             	mov    %rax,%rdx
    1d68:	48 8d 05 99 bf 01 00 	lea    0x1bf99(%rip),%rax        # 1dd08 <spec_fd+0x8>
    1d6f:	8b 14 02             	mov    (%rdx,%rax,1),%edx
    1d72:	8b 45 fc             	mov    -0x4(%rbp),%eax
    1d75:	8d 0c 02             	lea    (%rdx,%rax,1),%ecx
    1d78:	8b 45 ec             	mov    -0x14(%rbp),%eax
    1d7b:	48 63 d0             	movslq %eax,%rdx
    1d7e:	48 89 d0             	mov    %rdx,%rax
    1d81:	48 01 c0             	add    %rax,%rax
    1d84:	48 01 d0             	add    %rdx,%rax
    1d87:	48 c1 e0 03          	shl    $0x3,%rax
    1d8b:	48 89 c2             	mov    %rax,%rdx
    1d8e:	48 8d 05 73 bf 01 00 	lea    0x1bf73(%rip),%rax        # 1dd08 <spec_fd+0x8>
    1d95:	89 0c 02             	mov    %ecx,(%rdx,%rax,1)
    1d98:	8b 05 72 b2 01 00    	mov    0x1b272(%rip),%eax        # 1d010 <dbglvl>
    1d9e:	83 f8 04             	cmp    $0x4,%eax
    1da1:	7e 19                	jle    1dbc <spec_read+0x240>
    1da3:	8b 45 fc             	mov    -0x4(%rbp),%eax
    1da6:	89 c6                	mov    %eax,%esi
    1da8:	48 8d 05 4f 73 01 00 	lea    0x1734f(%rip),%rax        # 190fe <_IO_stdin_used+0xfe>
    1daf:	48 89 c7             	mov    %rax,%rdi
    1db2:	b8 00 00 00 00       	mov    $0x0,%eax
    1db7:	e8 24 f4 ff ff       	call   11e0 <printf@plt>
    1dbc:	8b 45 fc             	mov    -0x4(%rbp),%eax
    1dbf:	c9                   	leave  
    1dc0:	c3                   	ret    

0000000000001dc1 <spec_fread>:
    1dc1:	f3 0f 1e fa          	endbr64 
    1dc5:	55                   	push   %rbp
    1dc6:	48 89 e5             	mov    %rsp,%rbp
    1dc9:	48 83 ec 30          	sub    $0x30,%rsp
    1dcd:	48 89 7d e8          	mov    %rdi,-0x18(%rbp)
    1dd1:	89 75 e4             	mov    %esi,-0x1c(%rbp)
    1dd4:	89 55 e0             	mov    %edx,-0x20(%rbp)
    1dd7:	89 4d dc             	mov    %ecx,-0x24(%rbp)
    1dda:	c7 45 fc 00 00 00 00 	movl   $0x0,-0x4(%rbp)
    1de1:	8b 05 29 b2 01 00    	mov    0x1b229(%rip),%eax        # 1d010 <dbglvl>
    1de7:	83 f8 04             	cmp    $0x4,%eax
    1dea:	7e 27                	jle    1e13 <spec_fread+0x52>
    1dec:	8b 75 dc             	mov    -0x24(%rbp),%esi
    1def:	8b 4d e0             	mov    -0x20(%rbp),%ecx
    1df2:	8b 55 e4             	mov    -0x1c(%rbp),%edx
    1df5:	48 8b 45 e8          	mov    -0x18(%rbp),%rax
    1df9:	41 89 f0             	mov    %esi,%r8d
    1dfc:	48 89 c6             	mov    %rax,%rsi
    1dff:	48 8d 05 02 73 01 00 	lea    0x17302(%rip),%rax        # 19108 <_IO_stdin_used+0x108>
    1e06:	48 89 c7             	mov    %rax,%rdi
    1e09:	b8 00 00 00 00       	mov    $0x0,%eax
    1e0e:	e8 cd f3 ff ff       	call   11e0 <printf@plt>
    1e13:	83 7d dc 03          	cmpl   $0x3,-0x24(%rbp)
    1e17:	7e 2b                	jle    1e44 <spec_fread+0x83>
    1e19:	48 8b 05 c0 be 01 00 	mov    0x1bec0(%rip),%rax        # 1dce0 <stderr@GLIBC_2.2.5>
    1e20:	8b 55 dc             	mov    -0x24(%rbp),%edx
    1e23:	48 8d 0d 06 73 01 00 	lea    0x17306(%rip),%rcx        # 19130 <_IO_stdin_used+0x130>
    1e2a:	48 89 ce             	mov    %rcx,%rsi
    1e2d:	48 89 c7             	mov    %rax,%rdi
    1e30:	b8 00 00 00 00       	mov    $0x0,%eax
    1e35:	e8 f6 f3 ff ff       	call   1230 <fprintf@plt>
    1e3a:	bf 00 00 00 00       	mov    $0x0,%edi
    1e3f:	e8 5c f4 ff ff       	call   12a0 <exit@plt>
    1e44:	8b 45 dc             	mov    -0x24(%rbp),%eax
    1e47:	48 63 d0             	movslq %eax,%rdx
    1e4a:	48 89 d0             	mov    %rdx,%rax
    1e4d:	48 01 c0             	add    %rax,%rax
    1e50:	48 01 d0             	add    %rdx,%rax
    1e53:	48 c1 e0 03          	shl    $0x3,%rax
    1e57:	48 89 c2             	mov    %rax,%rdx
    1e5a:	48 8d 05 a7 be 01 00 	lea    0x1bea7(%rip),%rax        # 1dd08 <spec_fd+0x8>
    1e61:	8b 0c 02             	mov    (%rdx,%rax,1),%ecx
    1e64:	8b 45 dc             	mov    -0x24(%rbp),%eax
    1e67:	48 63 d0             	movslq %eax,%rdx
    1e6a:	48 89 d0             	mov    %rdx,%rax
    1e6d:	48 01 c0             	add    %rax,%rax
    1e70:	48 01 d0             	add    %rdx,%rax
    1e73:	48 c1 e0 03          	shl    $0x3,%rax
    1e77:	48 89 c2             	mov    %rax,%rdx
    1e7a:	48 8d 05 83 be 01 00 	lea    0x1be83(%rip),%rax        # 1dd04 <spec_fd+0x4>
    1e81:	8b 04 02             	mov    (%rdx,%rax,1),%eax
    1e84:	39 c1                	cmp    %eax,%ecx
    1e86:	7c 24                	jl     1eac <spec_fread+0xeb>
    1e88:	8b 05 82 b1 01 00    	mov    0x1b182(%rip),%eax        # 1d010 <dbglvl>
    1e8e:	83 f8 04             	cmp    $0x4,%eax
    1e91:	7e 0f                	jle    1ea2 <spec_fread+0xe1>
    1e93:	48 8d 05 60 72 01 00 	lea    0x17260(%rip),%rax        # 190fa <_IO_stdin_used+0xfa>
    1e9a:	48 89 c7             	mov    %rax,%rdi
    1e9d:	e8 0e f3 ff ff       	call   11b0 <puts@plt>
    1ea2:	b8 ff ff ff ff       	mov    $0xffffffff,%eax
    1ea7:	e9 72 01 00 00       	jmp    201e <spec_fread+0x25d>
    1eac:	8b 45 dc             	mov    -0x24(%rbp),%eax
    1eaf:	48 63 d0             	movslq %eax,%rdx
    1eb2:	48 89 d0             	mov    %rdx,%rax
    1eb5:	48 01 c0             	add    %rax,%rax
    1eb8:	48 01 d0             	add    %rdx,%rax
    1ebb:	48 c1 e0 03          	shl    $0x3,%rax
    1ebf:	48 89 c2             	mov    %rax,%rdx
    1ec2:	48 8d 05 3f be 01 00 	lea    0x1be3f(%rip),%rax        # 1dd08 <spec_fd+0x8>
    1ec9:	8b 14 02             	mov    (%rdx,%rax,1),%edx
    1ecc:	8b 45 e4             	mov    -0x1c(%rbp),%eax
    1ecf:	0f af 45 e0          	imul   -0x20(%rbp),%eax
    1ed3:	8d 0c 02             	lea    (%rdx,%rax,1),%ecx
    1ed6:	8b 45 dc             	mov    -0x24(%rbp),%eax
    1ed9:	48 63 d0             	movslq %eax,%rdx
    1edc:	48 89 d0             	mov    %rdx,%rax
    1edf:	48 01 c0             	add    %rax,%rax
    1ee2:	48 01 d0             	add    %rdx,%rax
    1ee5:	48 c1 e0 03          	shl    $0x3,%rax
    1ee9:	48 89 c2             	mov    %rax,%rdx
    1eec:	48 8d 05 11 be 01 00 	lea    0x1be11(%rip),%rax        # 1dd04 <spec_fd+0x4>
    1ef3:	8b 04 02             	mov    (%rdx,%rax,1),%eax
    1ef6:	39 c1                	cmp    %eax,%ecx
    1ef8:	7c 4d                	jl     1f47 <spec_fread+0x186>
    1efa:	8b 45 dc             	mov    -0x24(%rbp),%eax
    1efd:	48 63 d0             	movslq %eax,%rdx
    1f00:	48 89 d0             	mov    %rdx,%rax
    1f03:	48 01 c0             	add    %rax,%rax
    1f06:	48 01 d0             	add    %rdx,%rax
    1f09:	48 c1 e0 03          	shl    $0x3,%rax
    1f0d:	48 89 c2             	mov    %rax,%rdx
    1f10:	48 8d 05 ed bd 01 00 	lea    0x1bded(%rip),%rax        # 1dd04 <spec_fd+0x4>
    1f17:	8b 0c 02             	mov    (%rdx,%rax,1),%ecx
    1f1a:	8b 45 dc             	mov    -0x24(%rbp),%eax
    1f1d:	48 63 d0             	movslq %eax,%rdx
    1f20:	48 89 d0             	mov    %rdx,%rax
    1f23:	48 01 c0             	add    %rax,%rax
    1f26:	48 01 d0             	add    %rdx,%rax
    1f29:	48 c1 e0 03          	shl    $0x3,%rax
    1f2d:	48 89 c2             	mov    %rax,%rdx
    1f30:	48 8d 05 d1 bd 01 00 	lea    0x1bdd1(%rip),%rax        # 1dd08 <spec_fd+0x8>
    1f37:	8b 14 02             	mov    (%rdx,%rax,1),%edx
    1f3a:	89 c8                	mov    %ecx,%eax
    1f3c:	29 d0                	sub    %edx,%eax
    1f3e:	99                   	cltd   
    1f3f:	f7 7d e4             	idivl  -0x1c(%rbp)
    1f42:	89 45 fc             	mov    %eax,-0x4(%rbp)
    1f45:	eb 06                	jmp    1f4d <spec_fread+0x18c>
    1f47:	8b 45 e0             	mov    -0x20(%rbp),%eax
    1f4a:	89 45 fc             	mov    %eax,-0x4(%rbp)
    1f4d:	8b 45 fc             	mov    -0x4(%rbp),%eax
    1f50:	48 63 d0             	movslq %eax,%rdx
    1f53:	8b 45 dc             	mov    -0x24(%rbp),%eax
    1f56:	48 63 c8             	movslq %eax,%rcx
    1f59:	48 89 c8             	mov    %rcx,%rax
    1f5c:	48 01 c0             	add    %rax,%rax
    1f5f:	48 01 c8             	add    %rcx,%rax
    1f62:	48 c1 e0 03          	shl    $0x3,%rax
    1f66:	48 89 c1             	mov    %rax,%rcx
    1f69:	48 8d 05 a0 bd 01 00 	lea    0x1bda0(%rip),%rax        # 1dd10 <spec_fd+0x10>
    1f70:	48 8b 34 01          	mov    (%rcx,%rax,1),%rsi
    1f74:	8b 45 dc             	mov    -0x24(%rbp),%eax
    1f77:	48 63 c8             	movslq %eax,%rcx
    1f7a:	48 89 c8             	mov    %rcx,%rax
    1f7d:	48 01 c0             	add    %rax,%rax
    1f80:	48 01 c8             	add    %rcx,%rax
    1f83:	48 c1 e0 03          	shl    $0x3,%rax
    1f87:	48 89 c1             	mov    %rax,%rcx
    1f8a:	48 8d 05 77 bd 01 00 	lea    0x1bd77(%rip),%rax        # 1dd08 <spec_fd+0x8>
    1f91:	8b 04 01             	mov    (%rcx,%rax,1),%eax
    1f94:	48 98                	cltq   
    1f96:	48 8d 0c 06          	lea    (%rsi,%rax,1),%rcx
    1f9a:	48 8b 45 e8          	mov    -0x18(%rbp),%rax
    1f9e:	48 89 ce             	mov    %rcx,%rsi
    1fa1:	48 89 c7             	mov    %rax,%rdi
    1fa4:	e8 97 f2 ff ff       	call   1240 <memcpy@plt>
    1fa9:	8b 45 dc             	mov    -0x24(%rbp),%eax
    1fac:	48 63 d0             	movslq %eax,%rdx
    1faf:	48 89 d0             	mov    %rdx,%rax
    1fb2:	48 01 c0             	add    %rax,%rax
    1fb5:	48 01 d0             	add    %rdx,%rax
    1fb8:	48 c1 e0 03          	shl    $0x3,%rax
    1fbc:	48 89 c2             	mov    %rax,%rdx
    1fbf:	48 8d 05 42 bd 01 00 	lea    0x1bd42(%rip),%rax        # 1dd08 <spec_fd+0x8>
    1fc6:	8b 14 02             	mov    (%rdx,%rax,1),%edx
    1fc9:	8b 45 fc             	mov    -0x4(%rbp),%eax
    1fcc:	0f af 45 e4          	imul   -0x1c(%rbp),%eax
    1fd0:	8d 0c 02             	lea    (%rdx,%rax,1),%ecx
    1fd3:	8b 45 dc             	mov    -0x24(%rbp),%eax
    1fd6:	48 63 d0             	movslq %eax,%rdx
    1fd9:	48 89 d0             	mov    %rdx,%rax
    1fdc:	48 01 c0             	add    %rax,%rax
    1fdf:	48 01 d0             	add    %rdx,%rax
    1fe2:	48 c1 e0 03          	shl    $0x3,%rax
    1fe6:	48 89 c2             	mov    %rax,%rdx
    1fe9:	48 8d 05 18 bd 01 00 	lea    0x1bd18(%rip),%rax        # 1dd08 <spec_fd+0x8>
    1ff0:	89 0c 02             	mov    %ecx,(%rdx,%rax,1)
    1ff3:	8b 05 17 b0 01 00    	mov    0x1b017(%rip),%eax        # 1d010 <dbglvl>
    1ff9:	83 f8 04             	cmp    $0x4,%eax
    1ffc:	7e 1d                	jle    201b <spec_fread+0x25a>
    1ffe:	8b 45 fc             	mov    -0x4(%rbp),%eax
    2001:	0f af 45 e4          	imul   -0x1c(%rbp),%eax
    2005:	89 c6                	mov    %eax,%esi
    2007:	48 8d 05 f0 70 01 00 	lea    0x170f0(%rip),%rax        # 190fe <_IO_stdin_used+0xfe>
    200e:	48 89 c7             	mov    %rax,%rdi
    2011:	b8 00 00 00 00       	mov    $0x0,%eax
    2016:	e8 c5 f1 ff ff       	call   11e0 <printf@plt>
    201b:	8b 45 fc             	mov    -0x4(%rbp),%eax
    201e:	c9                   	leave  
    201f:	c3                   	ret    

0000000000002020 <spec_getc>:
    2020:	f3 0f 1e fa          	endbr64 
    2024:	55                   	push   %rbp
    2025:	48 89 e5             	mov    %rsp,%rbp
    2028:	48 83 ec 20          	sub    $0x20,%rsp
    202c:	89 7d ec             	mov    %edi,-0x14(%rbp)
    202f:	c7 45 fc 00 00 00 00 	movl   $0x0,-0x4(%rbp)
    2036:	8b 05 d4 af 01 00    	mov    0x1afd4(%rip),%eax        # 1d010 <dbglvl>
    203c:	83 f8 04             	cmp    $0x4,%eax
    203f:	7e 19                	jle    205a <spec_getc+0x3a>
    2041:	8b 45 ec             	mov    -0x14(%rbp),%eax
    2044:	89 c6                	mov    %eax,%esi
    2046:	48 8d 05 06 71 01 00 	lea    0x17106(%rip),%rax        # 19153 <_IO_stdin_used+0x153>
    204d:	48 89 c7             	mov    %rax,%rdi
    2050:	b8 00 00 00 00       	mov    $0x0,%eax
    2055:	e8 86 f1 ff ff       	call   11e0 <printf@plt>
    205a:	83 7d ec 03          	cmpl   $0x3,-0x14(%rbp)
    205e:	7e 2b                	jle    208b <spec_getc+0x6b>
    2060:	48 8b 05 79 bc 01 00 	mov    0x1bc79(%rip),%rax        # 1dce0 <stderr@GLIBC_2.2.5>
    2067:	8b 55 ec             	mov    -0x14(%rbp),%edx
    206a:	48 8d 0d 67 70 01 00 	lea    0x17067(%rip),%rcx        # 190d8 <_IO_stdin_used+0xd8>
    2071:	48 89 ce             	mov    %rcx,%rsi
    2074:	48 89 c7             	mov    %rax,%rdi
    2077:	b8 00 00 00 00       	mov    $0x0,%eax
    207c:	e8 af f1 ff ff       	call   1230 <fprintf@plt>
    2081:	bf 00 00 00 00       	mov    $0x0,%edi
    2086:	e8 15 f2 ff ff       	call   12a0 <exit@plt>
    208b:	8b 45 ec             	mov    -0x14(%rbp),%eax
    208e:	48 63 d0             	movslq %eax,%rdx
    2091:	48 89 d0             	mov    %rdx,%rax
    2094:	48 01 c0             	add    %rax,%rax
    2097:	48 01 d0             	add    %rdx,%rax
    209a:	48 c1 e0 03          	shl    $0x3,%rax
    209e:	48 89 c2             	mov    %rax,%rdx
    20a1:	48 8d 05 60 bc 01 00 	lea    0x1bc60(%rip),%rax        # 1dd08 <spec_fd+0x8>
    20a8:	8b 0c 02             	mov    (%rdx,%rax,1),%ecx
    20ab:	8b 45 ec             	mov    -0x14(%rbp),%eax
    20ae:	48 63 d0             	movslq %eax,%rdx
    20b1:	48 89 d0             	mov    %rdx,%rax
    20b4:	48 01 c0             	add    %rax,%rax
    20b7:	48 01 d0             	add    %rdx,%rax
    20ba:	48 c1 e0 03          	shl    $0x3,%rax
    20be:	48 89 c2             	mov    %rax,%rdx
    20c1:	48 8d 05 3c bc 01 00 	lea    0x1bc3c(%rip),%rax        # 1dd04 <spec_fd+0x4>
    20c8:	8b 04 02             	mov    (%rdx,%rax,1),%eax
    20cb:	39 c1                	cmp    %eax,%ecx
    20cd:	7c 24                	jl     20f3 <spec_getc+0xd3>
    20cf:	8b 05 3b af 01 00    	mov    0x1af3b(%rip),%eax        # 1d010 <dbglvl>
    20d5:	83 f8 04             	cmp    $0x4,%eax
    20d8:	7e 0f                	jle    20e9 <spec_getc+0xc9>
    20da:	48 8d 05 19 70 01 00 	lea    0x17019(%rip),%rax        # 190fa <_IO_stdin_used+0xfa>
    20e1:	48 89 c7             	mov    %rax,%rdi
    20e4:	e8 c7 f0 ff ff       	call   11b0 <puts@plt>
    20e9:	b8 ff ff ff ff       	mov    $0xffffffff,%eax
    20ee:	e9 9a 00 00 00       	jmp    218d <spec_getc+0x16d>
    20f3:	8b 45 ec             	mov    -0x14(%rbp),%eax
    20f6:	48 63 d0             	movslq %eax,%rdx
    20f9:	48 89 d0             	mov    %rdx,%rax
    20fc:	48 01 c0             	add    %rax,%rax
    20ff:	48 01 d0             	add    %rdx,%rax
    2102:	48 c1 e0 03          	shl    $0x3,%rax
    2106:	48 89 c2             	mov    %rax,%rdx
    2109:	48 8d 05 00 bc 01 00 	lea    0x1bc00(%rip),%rax        # 1dd10 <spec_fd+0x10>
    2110:	48 8b 3c 02          	mov    (%rdx,%rax,1),%rdi
    2114:	8b 45 ec             	mov    -0x14(%rbp),%eax
    2117:	48 63 d0             	movslq %eax,%rdx
    211a:	48 89 d0             	mov    %rdx,%rax
    211d:	48 01 c0             	add    %rax,%rax
    2120:	48 01 d0             	add    %rdx,%rax
    2123:	48 c1 e0 03          	shl    $0x3,%rax
    2127:	48 89 c2             	mov    %rax,%rdx
    212a:	48 8d 05 d7 bb 01 00 	lea    0x1bbd7(%rip),%rax        # 1dd08 <spec_fd+0x8>
    2131:	8b 14 02             	mov    (%rdx,%rax,1),%edx
    2134:	8d 4a 01             	lea    0x1(%rdx),%ecx
    2137:	8b 45 ec             	mov    -0x14(%rbp),%eax
    213a:	48 63 f0             	movslq %eax,%rsi
    213d:	48 89 f0             	mov    %rsi,%rax
    2140:	48 01 c0             	add    %rax,%rax
    2143:	48 01 f0             	add    %rsi,%rax
    2146:	48 c1 e0 03          	shl    $0x3,%rax
    214a:	48 89 c6             	mov    %rax,%rsi
    214d:	48 8d 05 b4 bb 01 00 	lea    0x1bbb4(%rip),%rax        # 1dd08 <spec_fd+0x8>
    2154:	89 0c 06             	mov    %ecx,(%rsi,%rax,1)
    2157:	48 63 c2             	movslq %edx,%rax
    215a:	48 01 f8             	add    %rdi,%rax
    215d:	0f b6 00             	movzbl (%rax),%eax
    2160:	0f b6 c0             	movzbl %al,%eax
    2163:	89 45 fc             	mov    %eax,-0x4(%rbp)
    2166:	8b 05 a4 ae 01 00    	mov    0x1aea4(%rip),%eax        # 1d010 <dbglvl>
    216c:	83 f8 04             	cmp    $0x4,%eax
    216f:	7e 19                	jle    218a <spec_getc+0x16a>
    2171:	8b 45 fc             	mov    -0x4(%rbp),%eax
    2174:	89 c6                	mov    %eax,%esi
    2176:	48 8d 05 81 6f 01 00 	lea    0x16f81(%rip),%rax        # 190fe <_IO_stdin_used+0xfe>
    217d:	48 89 c7             	mov    %rax,%rdi
    2180:	b8 00 00 00 00       	mov    $0x0,%eax
    2185:	e8 56 f0 ff ff       	call   11e0 <printf@plt>
    218a:	8b 45 fc             	mov    -0x4(%rbp),%eax
    218d:	c9                   	leave  
    218e:	c3                   	ret    

000000000000218f <spec_ungetc>:
    218f:	f3 0f 1e fa          	endbr64 
    2193:	55                   	push   %rbp
    2194:	48 89 e5             	mov    %rsp,%rbp
    2197:	48 83 ec 20          	sub    $0x20,%rsp
    219b:	89 f8                	mov    %edi,%eax
    219d:	89 75 e8             	mov    %esi,-0x18(%rbp)
    21a0:	88 45 ec             	mov    %al,-0x14(%rbp)
    21a3:	c7 45 fc 00 00 00 00 	movl   $0x0,-0x4(%rbp)
    21aa:	8b 05 60 ae 01 00    	mov    0x1ae60(%rip),%eax        # 1d010 <dbglvl>
    21b0:	83 f8 04             	cmp    $0x4,%eax
    21b3:	7e 19                	jle    21ce <spec_ungetc+0x3f>
    21b5:	8b 45 e8             	mov    -0x18(%rbp),%eax
    21b8:	89 c6                	mov    %eax,%esi
    21ba:	48 8d 05 a3 6f 01 00 	lea    0x16fa3(%rip),%rax        # 19164 <_IO_stdin_used+0x164>
    21c1:	48 89 c7             	mov    %rax,%rdi
    21c4:	b8 00 00 00 00       	mov    $0x0,%eax
    21c9:	e8 12 f0 ff ff       	call   11e0 <printf@plt>
    21ce:	83 7d e8 03          	cmpl   $0x3,-0x18(%rbp)
    21d2:	7e 2b                	jle    21ff <spec_ungetc+0x70>
    21d4:	48 8b 05 05 bb 01 00 	mov    0x1bb05(%rip),%rax        # 1dce0 <stderr@GLIBC_2.2.5>
    21db:	8b 55 e8             	mov    -0x18(%rbp),%edx
    21de:	48 8d 0d f3 6e 01 00 	lea    0x16ef3(%rip),%rcx        # 190d8 <_IO_stdin_used+0xd8>
    21e5:	48 89 ce             	mov    %rcx,%rsi
    21e8:	48 89 c7             	mov    %rax,%rdi
    21eb:	b8 00 00 00 00       	mov    $0x0,%eax
    21f0:	e8 3b f0 ff ff       	call   1230 <fprintf@plt>
    21f5:	bf 00 00 00 00       	mov    $0x0,%edi
    21fa:	e8 a1 f0 ff ff       	call   12a0 <exit@plt>
    21ff:	8b 45 e8             	mov    -0x18(%rbp),%eax
    2202:	48 63 d0             	movslq %eax,%rdx
    2205:	48 89 d0             	mov    %rdx,%rax
    2208:	48 01 c0             	add    %rax,%rax
    220b:	48 01 d0             	add    %rdx,%rax
    220e:	48 c1 e0 03          	shl    $0x3,%rax
    2212:	48 89 c2             	mov    %rax,%rdx
    2215:	48 8d 05 ec ba 01 00 	lea    0x1baec(%rip),%rax        # 1dd08 <spec_fd+0x8>
    221c:	8b 04 02             	mov    (%rdx,%rax,1),%eax
    221f:	85 c0                	test   %eax,%eax
    2221:	7f 48                	jg     226b <spec_ungetc+0xdc>
    2223:	8b 45 e8             	mov    -0x18(%rbp),%eax
    2226:	48 63 d0             	movslq %eax,%rdx
    2229:	48 89 d0             	mov    %rdx,%rax
    222c:	48 01 c0             	add    %rax,%rax
    222f:	48 01 d0             	add    %rdx,%rax
    2232:	48 c1 e0 03          	shl    $0x3,%rax
    2236:	48 89 c2             	mov    %rax,%rdx
    2239:	48 8d 05 c8 ba 01 00 	lea    0x1bac8(%rip),%rax        # 1dd08 <spec_fd+0x8>
    2240:	8b 14 02             	mov    (%rdx,%rax,1),%edx
    2243:	48 8b 05 96 ba 01 00 	mov    0x1ba96(%rip),%rax        # 1dce0 <stderr@GLIBC_2.2.5>
    224a:	48 8d 0d 26 6f 01 00 	lea    0x16f26(%rip),%rcx        # 19177 <_IO_stdin_used+0x177>
    2251:	48 89 ce             	mov    %rcx,%rsi
    2254:	48 89 c7             	mov    %rax,%rdi
    2257:	b8 00 00 00 00       	mov    $0x0,%eax
    225c:	e8 cf ef ff ff       	call   1230 <fprintf@plt>
    2261:	bf 00 00 00 00       	mov    $0x0,%edi
    2266:	e8 35 f0 ff ff       	call   12a0 <exit@plt>
    226b:	8b 45 e8             	mov    -0x18(%rbp),%eax
    226e:	48 63 d0             	movslq %eax,%rdx
    2271:	48 89 d0             	mov    %rdx,%rax
    2274:	48 01 c0             	add    %rax,%rax
    2277:	48 01 d0             	add    %rdx,%rax
    227a:	48 c1 e0 03          	shl    $0x3,%rax
    227e:	48 89 c2             	mov    %rax,%rdx
    2281:	48 8d 05 88 ba 01 00 	lea    0x1ba88(%rip),%rax        # 1dd10 <spec_fd+0x10>
    2288:	48 8b 34 02          	mov    (%rdx,%rax,1),%rsi
    228c:	8b 45 e8             	mov    -0x18(%rbp),%eax
    228f:	48 63 d0             	movslq %eax,%rdx
    2292:	48 89 d0             	mov    %rdx,%rax
    2295:	48 01 c0             	add    %rax,%rax
    2298:	48 01 d0             	add    %rdx,%rax
    229b:	48 c1 e0 03          	shl    $0x3,%rax
    229f:	48 89 c2             	mov    %rax,%rdx
    22a2:	48 8d 05 5f ba 01 00 	lea    0x1ba5f(%rip),%rax        # 1dd08 <spec_fd+0x8>
    22a9:	8b 04 02             	mov    (%rdx,%rax,1),%eax
    22ac:	8d 48 ff             	lea    -0x1(%rax),%ecx
    22af:	8b 45 e8             	mov    -0x18(%rbp),%eax
    22b2:	48 63 d0             	movslq %eax,%rdx
    22b5:	48 89 d0             	mov    %rdx,%rax
    22b8:	48 01 c0             	add    %rax,%rax
    22bb:	48 01 d0             	add    %rdx,%rax
    22be:	48 c1 e0 03          	shl    $0x3,%rax
    22c2:	48 89 c2             	mov    %rax,%rdx
    22c5:	48 8d 05 3c ba 01 00 	lea    0x1ba3c(%rip),%rax        # 1dd08 <spec_fd+0x8>
    22cc:	89 0c 02             	mov    %ecx,(%rdx,%rax,1)
    22cf:	8b 45 e8             	mov    -0x18(%rbp),%eax
    22d2:	48 63 d0             	movslq %eax,%rdx
    22d5:	48 89 d0             	mov    %rdx,%rax
    22d8:	48 01 c0             	add    %rax,%rax
    22db:	48 01 d0             	add    %rdx,%rax
    22de:	48 c1 e0 03          	shl    $0x3,%rax
    22e2:	48 89 c2             	mov    %rax,%rdx
    22e5:	48 8d 05 1c ba 01 00 	lea    0x1ba1c(%rip),%rax        # 1dd08 <spec_fd+0x8>
    22ec:	8b 04 02             	mov    (%rdx,%rax,1),%eax
    22ef:	48 98                	cltq   
    22f1:	48 01 f0             	add    %rsi,%rax
    22f4:	0f b6 00             	movzbl (%rax),%eax
    22f7:	38 45 ec             	cmp    %al,-0x14(%rbp)
    22fa:	74 2d                	je     2329 <spec_ungetc+0x19a>
    22fc:	48 8b 05 dd b9 01 00 	mov    0x1b9dd(%rip),%rax        # 1dce0 <stderr@GLIBC_2.2.5>
    2303:	48 89 c1             	mov    %rax,%rcx
    2306:	ba 47 00 00 00       	mov    $0x47,%edx
    230b:	be 01 00 00 00       	mov    $0x1,%esi
    2310:	48 8d 05 81 6e 01 00 	lea    0x16e81(%rip),%rax        # 19198 <_IO_stdin_used+0x198>
    2317:	48 89 c7             	mov    %rax,%rdi
    231a:	e8 91 ef ff ff       	call   12b0 <fwrite@plt>
    231f:	bf 00 00 00 00       	mov    $0x0,%edi
    2324:	e8 77 ef ff ff       	call   12a0 <exit@plt>
    2329:	8b 05 e1 ac 01 00    	mov    0x1ace1(%rip),%eax        # 1d010 <dbglvl>
    232f:	83 f8 04             	cmp    $0x4,%eax
    2332:	7e 19                	jle    234d <spec_ungetc+0x1be>
    2334:	8b 45 fc             	mov    -0x4(%rbp),%eax
    2337:	89 c6                	mov    %eax,%esi
    2339:	48 8d 05 be 6d 01 00 	lea    0x16dbe(%rip),%rax        # 190fe <_IO_stdin_used+0xfe>
    2340:	48 89 c7             	mov    %rax,%rdi
    2343:	b8 00 00 00 00       	mov    $0x0,%eax
    2348:	e8 93 ee ff ff       	call   11e0 <printf@plt>
    234d:	0f b6 45 ec          	movzbl -0x14(%rbp),%eax
    2351:	c9                   	leave  
    2352:	c3                   	ret    

0000000000002353 <spec_rewind>:
    2353:	f3 0f 1e fa          	endbr64 
    2357:	55                   	push   %rbp
    2358:	48 89 e5             	mov    %rsp,%rbp
    235b:	89 7d fc             	mov    %edi,-0x4(%rbp)
    235e:	8b 45 fc             	mov    -0x4(%rbp),%eax
    2361:	48 63 d0             	movslq %eax,%rdx
    2364:	48 89 d0             	mov    %rdx,%rax
    2367:	48 01 c0             	add    %rax,%rax
    236a:	48 01 d0             	add    %rdx,%rax
    236d:	48 c1 e0 03          	shl    $0x3,%rax
    2371:	48 89 c2             	mov    %rax,%rdx
    2374:	48 8d 05 8d b9 01 00 	lea    0x1b98d(%rip),%rax        # 1dd08 <spec_fd+0x8>
    237b:	c7 04 02 00 00 00 00 	movl   $0x0,(%rdx,%rax,1)
    2382:	b8 00 00 00 00       	mov    $0x0,%eax
    2387:	5d                   	pop    %rbp
    2388:	c3                   	ret    

0000000000002389 <spec_reset>:
    2389:	f3 0f 1e fa          	endbr64 
    238d:	55                   	push   %rbp
    238e:	48 89 e5             	mov    %rsp,%rbp
    2391:	48 83 ec 10          	sub    $0x10,%rsp
    2395:	89 7d fc             	mov    %edi,-0x4(%rbp)
    2398:	8b 45 fc             	mov    -0x4(%rbp),%eax
    239b:	48 63 d0             	movslq %eax,%rdx
    239e:	48 89 d0             	mov    %rdx,%rax
    23a1:	48 01 c0             	add    %rax,%rax
    23a4:	48 01 d0             	add    %rdx,%rax
    23a7:	48 c1 e0 03          	shl    $0x3,%rax
    23ab:	48 89 c2             	mov    %rax,%rdx
    23ae:	48 8d 05 4f b9 01 00 	lea    0x1b94f(%rip),%rax        # 1dd04 <spec_fd+0x4>
    23b5:	8b 04 02             	mov    (%rdx,%rax,1),%eax
    23b8:	48 63 d0             	movslq %eax,%rdx
    23bb:	8b 45 fc             	mov    -0x4(%rbp),%eax
    23be:	48 63 c8             	movslq %eax,%rcx
    23c1:	48 89 c8             	mov    %rcx,%rax
    23c4:	48 01 c0             	add    %rax,%rax
    23c7:	48 01 c8             	add    %rcx,%rax
    23ca:	48 c1 e0 03          	shl    $0x3,%rax
    23ce:	48 89 c1             	mov    %rax,%rcx
    23d1:	48 8d 05 38 b9 01 00 	lea    0x1b938(%rip),%rax        # 1dd10 <spec_fd+0x10>
    23d8:	48 8b 04 01          	mov    (%rcx,%rax,1),%rax
    23dc:	be 00 00 00 00       	mov    $0x0,%esi
    23e1:	48 89 c7             	mov    %rax,%rdi
    23e4:	e8 07 ee ff ff       	call   11f0 <memset@plt>
    23e9:	8b 45 fc             	mov    -0x4(%rbp),%eax
    23ec:	48 63 d0             	movslq %eax,%rdx
    23ef:	48 89 d0             	mov    %rdx,%rax
    23f2:	48 01 c0             	add    %rax,%rax
    23f5:	48 01 d0             	add    %rdx,%rax
    23f8:	48 c1 e0 03          	shl    $0x3,%rax
    23fc:	48 89 c2             	mov    %rax,%rdx
    23ff:	48 8d 05 fe b8 01 00 	lea    0x1b8fe(%rip),%rax        # 1dd04 <spec_fd+0x4>
    2406:	c7 04 02 00 00 00 00 	movl   $0x0,(%rdx,%rax,1)
    240d:	8b 45 fc             	mov    -0x4(%rbp),%eax
    2410:	48 63 d0             	movslq %eax,%rdx
    2413:	48 89 d0             	mov    %rdx,%rax
    2416:	48 01 c0             	add    %rax,%rax
    2419:	48 01 d0             	add    %rdx,%rax
    241c:	48 c1 e0 03          	shl    $0x3,%rax
    2420:	48 89 c2             	mov    %rax,%rdx
    2423:	48 8d 05 da b8 01 00 	lea    0x1b8da(%rip),%rax        # 1dd04 <spec_fd+0x4>
    242a:	8b 14 02             	mov    (%rdx,%rax,1),%edx
    242d:	8b 45 fc             	mov    -0x4(%rbp),%eax
    2430:	48 63 c8             	movslq %eax,%rcx
    2433:	48 89 c8             	mov    %rcx,%rax
    2436:	48 01 c0             	add    %rax,%rax
    2439:	48 01 c8             	add    %rcx,%rax
    243c:	48 c1 e0 03          	shl    $0x3,%rax
    2440:	48 89 c1             	mov    %rax,%rcx
    2443:	48 8d 05 be b8 01 00 	lea    0x1b8be(%rip),%rax        # 1dd08 <spec_fd+0x8>
    244a:	89 14 01             	mov    %edx,(%rcx,%rax,1)
    244d:	b8 00 00 00 00       	mov    $0x0,%eax
    2452:	c9                   	leave  
    2453:	c3                   	ret    

0000000000002454 <spec_write>:
    2454:	f3 0f 1e fa          	endbr64 
    2458:	55                   	push   %rbp
    2459:	48 89 e5             	mov    %rsp,%rbp
    245c:	48 83 ec 10          	sub    $0x10,%rsp
    2460:	89 7d fc             	mov    %edi,-0x4(%rbp)
    2463:	48 89 75 f0          	mov    %rsi,-0x10(%rbp)
    2467:	89 55 f8             	mov    %edx,-0x8(%rbp)
    246a:	8b 05 a0 ab 01 00    	mov    0x1aba0(%rip),%eax        # 1d010 <dbglvl>
    2470:	83 f8 04             	cmp    $0x4,%eax
    2473:	7e 20                	jle    2495 <spec_write+0x41>
    2475:	8b 4d f8             	mov    -0x8(%rbp),%ecx
    2478:	48 8b 55 f0          	mov    -0x10(%rbp),%rdx
    247c:	8b 45 fc             	mov    -0x4(%rbp),%eax
    247f:	89 c6                	mov    %eax,%esi
    2481:	48 8d 05 58 6d 01 00 	lea    0x16d58(%rip),%rax        # 191e0 <_IO_stdin_used+0x1e0>
    2488:	48 89 c7             	mov    %rax,%rdi
    248b:	b8 00 00 00 00       	mov    $0x0,%eax
    2490:	e8 4b ed ff ff       	call   11e0 <printf@plt>
    2495:	83 7d fc 03          	cmpl   $0x3,-0x4(%rbp)
    2499:	7e 2b                	jle    24c6 <spec_write+0x72>
    249b:	48 8b 05 3e b8 01 00 	mov    0x1b83e(%rip),%rax        # 1dce0 <stderr@GLIBC_2.2.5>
    24a2:	8b 55 fc             	mov    -0x4(%rbp),%edx
    24a5:	48 8d 0d 54 6d 01 00 	lea    0x16d54(%rip),%rcx        # 19200 <_IO_stdin_used+0x200>
    24ac:	48 89 ce             	mov    %rcx,%rsi
    24af:	48 89 c7             	mov    %rax,%rdi
    24b2:	b8 00 00 00 00       	mov    $0x0,%eax
    24b7:	e8 74 ed ff ff       	call   1230 <fprintf@plt>
    24bc:	bf 00 00 00 00       	mov    $0x0,%edi
    24c1:	e8 da ed ff ff       	call   12a0 <exit@plt>
    24c6:	8b 45 f8             	mov    -0x8(%rbp),%eax
    24c9:	48 63 d0             	movslq %eax,%rdx
    24cc:	8b 45 fc             	mov    -0x4(%rbp),%eax
    24cf:	48 63 c8             	movslq %eax,%rcx
    24d2:	48 89 c8             	mov    %rcx,%rax
    24d5:	48 01 c0             	add    %rax,%rax
    24d8:	48 01 c8             	add    %rcx,%rax
    24db:	48 c1 e0 03          	shl    $0x3,%rax
    24df:	48 89 c1             	mov    %rax,%rcx
    24e2:	48 8d 05 27 b8 01 00 	lea    0x1b827(%rip),%rax        # 1dd10 <spec_fd+0x10>
    24e9:	48 8b 34 01          	mov    (%rcx,%rax,1),%rsi
    24ed:	8b 45 fc             	mov    -0x4(%rbp),%eax
    24f0:	48 63 c8             	movslq %eax,%rcx
    24f3:	48 89 c8             	mov    %rcx,%rax
    24f6:	48 01 c0             	add    %rax,%rax
    24f9:	48 01 c8             	add    %rcx,%rax
    24fc:	48 c1 e0 03          	shl    $0x3,%rax
    2500:	48 89 c1             	mov    %rax,%rcx
    2503:	48 8d 05 fe b7 01 00 	lea    0x1b7fe(%rip),%rax        # 1dd08 <spec_fd+0x8>
    250a:	8b 04 01             	mov    (%rcx,%rax,1),%eax
    250d:	48 98                	cltq   
    250f:	48 8d 0c 06          	lea    (%rsi,%rax,1),%rcx
    2513:	48 8b 45 f0          	mov    -0x10(%rbp),%rax
    2517:	48 89 c6             	mov    %rax,%rsi
    251a:	48 89 cf             	mov    %rcx,%rdi
    251d:	e8 1e ed ff ff       	call   1240 <memcpy@plt>
    2522:	8b 45 fc             	mov    -0x4(%rbp),%eax
    2525:	48 63 d0             	movslq %eax,%rdx
    2528:	48 89 d0             	mov    %rdx,%rax
    252b:	48 01 c0             	add    %rax,%rax
    252e:	48 01 d0             	add    %rdx,%rax
    2531:	48 c1 e0 03          	shl    $0x3,%rax
    2535:	48 89 c2             	mov    %rax,%rdx
    2538:	48 8d 05 c5 b7 01 00 	lea    0x1b7c5(%rip),%rax        # 1dd04 <spec_fd+0x4>
    253f:	8b 14 02             	mov    (%rdx,%rax,1),%edx
    2542:	8b 45 f8             	mov    -0x8(%rbp),%eax
    2545:	8d 0c 02             	lea    (%rdx,%rax,1),%ecx
    2548:	8b 45 fc             	mov    -0x4(%rbp),%eax
    254b:	48 63 d0             	movslq %eax,%rdx
    254e:	48 89 d0             	mov    %rdx,%rax
    2551:	48 01 c0             	add    %rax,%rax
    2554:	48 01 d0             	add    %rdx,%rax
    2557:	48 c1 e0 03          	shl    $0x3,%rax
    255b:	48 89 c2             	mov    %rax,%rdx
    255e:	48 8d 05 9f b7 01 00 	lea    0x1b79f(%rip),%rax        # 1dd04 <spec_fd+0x4>
    2565:	89 0c 02             	mov    %ecx,(%rdx,%rax,1)
    2568:	8b 45 fc             	mov    -0x4(%rbp),%eax
    256b:	48 63 d0             	movslq %eax,%rdx
    256e:	48 89 d0             	mov    %rdx,%rax
    2571:	48 01 c0             	add    %rax,%rax
    2574:	48 01 d0             	add    %rdx,%rax
    2577:	48 c1 e0 03          	shl    $0x3,%rax
    257b:	48 89 c2             	mov    %rax,%rdx
    257e:	48 8d 05 83 b7 01 00 	lea    0x1b783(%rip),%rax        # 1dd08 <spec_fd+0x8>
    2585:	8b 14 02             	mov    (%rdx,%rax,1),%edx
    2588:	8b 45 f8             	mov    -0x8(%rbp),%eax
    258b:	8d 0c 02             	lea    (%rdx,%rax,1),%ecx
    258e:	8b 45 fc             	mov    -0x4(%rbp),%eax
    2591:	48 63 d0             	movslq %eax,%rdx
    2594:	48 89 d0             	mov    %rdx,%rax
    2597:	48 01 c0             	add    %rax,%rax
    259a:	48 01 d0             	add    %rdx,%rax
    259d:	48 c1 e0 03          	shl    $0x3,%rax
    25a1:	48 89 c2             	mov    %rax,%rdx
    25a4:	48 8d 05 5d b7 01 00 	lea    0x1b75d(%rip),%rax        # 1dd08 <spec_fd+0x8>
    25ab:	89 0c 02             	mov    %ecx,(%rdx,%rax,1)
    25ae:	8b 05 5c aa 01 00    	mov    0x1aa5c(%rip),%eax        # 1d010 <dbglvl>
    25b4:	83 f8 04             	cmp    $0x4,%eax
    25b7:	7e 19                	jle    25d2 <spec_write+0x17e>
    25b9:	8b 45 f8             	mov    -0x8(%rbp),%eax
    25bc:	89 c6                	mov    %eax,%esi
    25be:	48 8d 05 39 6b 01 00 	lea    0x16b39(%rip),%rax        # 190fe <_IO_stdin_used+0xfe>
    25c5:	48 89 c7             	mov    %rax,%rdi
    25c8:	b8 00 00 00 00       	mov    $0x0,%eax
    25cd:	e8 0e ec ff ff       	call   11e0 <printf@plt>
    25d2:	8b 45 f8             	mov    -0x8(%rbp),%eax
    25d5:	c9                   	leave  
    25d6:	c3                   	ret    

00000000000025d7 <spec_fwrite>:
    25d7:	f3 0f 1e fa          	endbr64 
    25db:	55                   	push   %rbp
    25dc:	48 89 e5             	mov    %rsp,%rbp
    25df:	48 83 ec 20          	sub    $0x20,%rsp
    25e3:	48 89 7d f8          	mov    %rdi,-0x8(%rbp)
    25e7:	89 75 f4             	mov    %esi,-0xc(%rbp)
    25ea:	89 55 f0             	mov    %edx,-0x10(%rbp)
    25ed:	89 4d ec             	mov    %ecx,-0x14(%rbp)
    25f0:	8b 05 1a aa 01 00    	mov    0x1aa1a(%rip),%eax        # 1d010 <dbglvl>
    25f6:	83 f8 04             	cmp    $0x4,%eax
    25f9:	7e 27                	jle    2622 <spec_fwrite+0x4b>
    25fb:	8b 75 ec             	mov    -0x14(%rbp),%esi
    25fe:	8b 4d f0             	mov    -0x10(%rbp),%ecx
    2601:	8b 55 f4             	mov    -0xc(%rbp),%edx
    2604:	48 8b 45 f8          	mov    -0x8(%rbp),%rax
    2608:	41 89 f0             	mov    %esi,%r8d
    260b:	48 89 c6             	mov    %rax,%rsi
    260e:	48 8d 05 13 6c 01 00 	lea    0x16c13(%rip),%rax        # 19228 <_IO_stdin_used+0x228>
    2615:	48 89 c7             	mov    %rax,%rdi
    2618:	b8 00 00 00 00       	mov    $0x0,%eax
    261d:	e8 be eb ff ff       	call   11e0 <printf@plt>
    2622:	83 7d ec 03          	cmpl   $0x3,-0x14(%rbp)
    2626:	7e 2b                	jle    2653 <spec_fwrite+0x7c>
    2628:	48 8b 05 b1 b6 01 00 	mov    0x1b6b1(%rip),%rax        # 1dce0 <stderr@GLIBC_2.2.5>
    262f:	8b 55 ec             	mov    -0x14(%rbp),%edx
    2632:	48 8d 0d 0f 6c 01 00 	lea    0x16c0f(%rip),%rcx        # 19248 <_IO_stdin_used+0x248>
    2639:	48 89 ce             	mov    %rcx,%rsi
    263c:	48 89 c7             	mov    %rax,%rdi
    263f:	b8 00 00 00 00       	mov    $0x0,%eax
    2644:	e8 e7 eb ff ff       	call   1230 <fprintf@plt>
    2649:	bf 00 00 00 00       	mov    $0x0,%edi
    264e:	e8 4d ec ff ff       	call   12a0 <exit@plt>
    2653:	8b 45 f4             	mov    -0xc(%rbp),%eax
    2656:	0f af 45 f0          	imul   -0x10(%rbp),%eax
    265a:	48 63 d0             	movslq %eax,%rdx
    265d:	8b 45 ec             	mov    -0x14(%rbp),%eax
    2660:	48 63 c8             	movslq %eax,%rcx
    2663:	48 89 c8             	mov    %rcx,%rax
    2666:	48 01 c0             	add    %rax,%rax
    2669:	48 01 c8             	add    %rcx,%rax
    266c:	48 c1 e0 03          	shl    $0x3,%rax
    2670:	48 89 c1             	mov    %rax,%rcx
    2673:	48 8d 05 96 b6 01 00 	lea    0x1b696(%rip),%rax        # 1dd10 <spec_fd+0x10>
    267a:	48 8b 34 01          	mov    (%rcx,%rax,1),%rsi
    267e:	8b 45 ec             	mov    -0x14(%rbp),%eax
    2681:	48 63 c8             	movslq %eax,%rcx
    2684:	48 89 c8             	mov    %rcx,%rax
    2687:	48 01 c0             	add    %rax,%rax
    268a:	48 01 c8             	add    %rcx,%rax
    268d:	48 c1 e0 03          	shl    $0x3,%rax
    2691:	48 89 c1             	mov    %rax,%rcx
    2694:	48 8d 05 6d b6 01 00 	lea    0x1b66d(%rip),%rax        # 1dd08 <spec_fd+0x8>
    269b:	8b 04 01             	mov    (%rcx,%rax,1),%eax
    269e:	48 98                	cltq   
    26a0:	48 8d 0c 06          	lea    (%rsi,%rax,1),%rcx
    26a4:	48 8b 45 f8          	mov    -0x8(%rbp),%rax
    26a8:	48 89 c6             	mov    %rax,%rsi
    26ab:	48 89 cf             	mov    %rcx,%rdi
    26ae:	e8 8d eb ff ff       	call   1240 <memcpy@plt>
    26b3:	8b 45 ec             	mov    -0x14(%rbp),%eax
    26b6:	48 63 d0             	movslq %eax,%rdx
    26b9:	48 89 d0             	mov    %rdx,%rax
    26bc:	48 01 c0             	add    %rax,%rax
    26bf:	48 01 d0             	add    %rdx,%rax
    26c2:	48 c1 e0 03          	shl    $0x3,%rax
    26c6:	48 89 c2             	mov    %rax,%rdx
    26c9:	48 8d 05 34 b6 01 00 	lea    0x1b634(%rip),%rax        # 1dd04 <spec_fd+0x4>
    26d0:	8b 14 02             	mov    (%rdx,%rax,1),%edx
    26d3:	8b 45 f4             	mov    -0xc(%rbp),%eax
    26d6:	0f af 45 f0          	imul   -0x10(%rbp),%eax
    26da:	8d 0c 02             	lea    (%rdx,%rax,1),%ecx
    26dd:	8b 45 ec             	mov    -0x14(%rbp),%eax
    26e0:	48 63 d0             	movslq %eax,%rdx
    26e3:	48 89 d0             	mov    %rdx,%rax
    26e6:	48 01 c0             	add    %rax,%rax
    26e9:	48 01 d0             	add    %rdx,%rax
    26ec:	48 c1 e0 03          	shl    $0x3,%rax
    26f0:	48 89 c2             	mov    %rax,%rdx
    26f3:	48 8d 05 0a b6 01 00 	lea    0x1b60a(%rip),%rax        # 1dd04 <spec_fd+0x4>
    26fa:	89 0c 02             	mov    %ecx,(%rdx,%rax,1)
    26fd:	8b 45 ec             	mov    -0x14(%rbp),%eax
    2700:	48 63 d0             	movslq %eax,%rdx
    2703:	48 89 d0             	mov    %rdx,%rax
    2706:	48 01 c0             	add    %rax,%rax
    2709:	48 01 d0             	add    %rdx,%rax
    270c:	48 c1 e0 03          	shl    $0x3,%rax
    2710:	48 89 c2             	mov    %rax,%rdx
    2713:	48 8d 05 ee b5 01 00 	lea    0x1b5ee(%rip),%rax        # 1dd08 <spec_fd+0x8>
    271a:	8b 14 02             	mov    (%rdx,%rax,1),%edx
    271d:	8b 45 f4             	mov    -0xc(%rbp),%eax
    2720:	0f af 45 f0          	imul   -0x10(%rbp),%eax
    2724:	8d 0c 02             	lea    (%rdx,%rax,1),%ecx
    2727:	8b 45 ec             	mov    -0x14(%rbp),%eax
    272a:	48 63 d0             	movslq %eax,%rdx
    272d:	48 89 d0             	mov    %rdx,%rax
    2730:	48 01 c0             	add    %rax,%rax
    2733:	48 01 d0             	add    %rdx,%rax
    2736:	48 c1 e0 03          	shl    $0x3,%rax
    273a:	48 89 c2             	mov    %rax,%rdx
    273d:	48 8d 05 c4 b5 01 00 	lea    0x1b5c4(%rip),%rax        # 1dd08 <spec_fd+0x8>
    2744:	89 0c 02             	mov    %ecx,(%rdx,%rax,1)
    2747:	8b 05 c3 a8 01 00    	mov    0x1a8c3(%rip),%eax        # 1d010 <dbglvl>
    274d:	83 f8 04             	cmp    $0x4,%eax
    2750:	7e 19                	jle    276b <spec_fwrite+0x194>
    2752:	8b 45 f0             	mov    -0x10(%rbp),%eax
    2755:	89 c6                	mov    %eax,%esi
    2757:	48 8d 05 a0 69 01 00 	lea    0x169a0(%rip),%rax        # 190fe <_IO_stdin_used+0xfe>
    275e:	48 89 c7             	mov    %rax,%rdi
    2761:	b8 00 00 00 00       	mov    $0x0,%eax
    2766:	e8 75 ea ff ff       	call   11e0 <printf@plt>
    276b:	8b 45 f0             	mov    -0x10(%rbp),%eax
    276e:	c9                   	leave  
    276f:	c3                   	ret    

0000000000002770 <spec_putc>:
    2770:	f3 0f 1e fa          	endbr64 
    2774:	55                   	push   %rbp
    2775:	48 89 e5             	mov    %rsp,%rbp
    2778:	48 83 ec 10          	sub    $0x10,%rsp
    277c:	89 f8                	mov    %edi,%eax
    277e:	89 75 f8             	mov    %esi,-0x8(%rbp)
    2781:	88 45 fc             	mov    %al,-0x4(%rbp)
    2784:	8b 05 86 a8 01 00    	mov    0x1a886(%rip),%eax        # 1d010 <dbglvl>
    278a:	83 f8 04             	cmp    $0x4,%eax
    278d:	7e 1d                	jle    27ac <spec_putc+0x3c>
    278f:	0f b6 45 fc          	movzbl -0x4(%rbp),%eax
    2793:	8b 55 f8             	mov    -0x8(%rbp),%edx
    2796:	89 c6                	mov    %eax,%esi
    2798:	48 8d 05 cd 6a 01 00 	lea    0x16acd(%rip),%rax        # 1926c <_IO_stdin_used+0x26c>
    279f:	48 89 c7             	mov    %rax,%rdi
    27a2:	b8 00 00 00 00       	mov    $0x0,%eax
    27a7:	e8 34 ea ff ff       	call   11e0 <printf@plt>
    27ac:	83 7d f8 03          	cmpl   $0x3,-0x8(%rbp)
    27b0:	7e 2b                	jle    27dd <spec_putc+0x6d>
    27b2:	48 8b 05 27 b5 01 00 	mov    0x1b527(%rip),%rax        # 1dce0 <stderr@GLIBC_2.2.5>
    27b9:	8b 55 f8             	mov    -0x8(%rbp),%edx
    27bc:	48 8d 0d 3d 6a 01 00 	lea    0x16a3d(%rip),%rcx        # 19200 <_IO_stdin_used+0x200>
    27c3:	48 89 ce             	mov    %rcx,%rsi
    27c6:	48 89 c7             	mov    %rax,%rdi
    27c9:	b8 00 00 00 00       	mov    $0x0,%eax
    27ce:	e8 5d ea ff ff       	call   1230 <fprintf@plt>
    27d3:	bf 00 00 00 00       	mov    $0x0,%edi
    27d8:	e8 c3 ea ff ff       	call   12a0 <exit@plt>
    27dd:	8b 45 f8             	mov    -0x8(%rbp),%eax
    27e0:	48 63 d0             	movslq %eax,%rdx
    27e3:	48 89 d0             	mov    %rdx,%rax
    27e6:	48 01 c0             	add    %rax,%rax
    27e9:	48 01 d0             	add    %rdx,%rax
    27ec:	48 c1 e0 03          	shl    $0x3,%rax
    27f0:	48 89 c2             	mov    %rax,%rdx
    27f3:	48 8d 05 16 b5 01 00 	lea    0x1b516(%rip),%rax        # 1dd10 <spec_fd+0x10>
    27fa:	48 8b 3c 02          	mov    (%rdx,%rax,1),%rdi
    27fe:	8b 45 f8             	mov    -0x8(%rbp),%eax
    2801:	48 63 d0             	movslq %eax,%rdx
    2804:	48 89 d0             	mov    %rdx,%rax
    2807:	48 01 c0             	add    %rax,%rax
    280a:	48 01 d0             	add    %rdx,%rax
    280d:	48 c1 e0 03          	shl    $0x3,%rax
    2811:	48 89 c2             	mov    %rax,%rdx
    2814:	48 8d 05 ed b4 01 00 	lea    0x1b4ed(%rip),%rax        # 1dd08 <spec_fd+0x8>
    281b:	8b 14 02             	mov    (%rdx,%rax,1),%edx
    281e:	8d 4a 01             	lea    0x1(%rdx),%ecx
    2821:	8b 45 f8             	mov    -0x8(%rbp),%eax
    2824:	48 63 f0             	movslq %eax,%rsi
    2827:	48 89 f0             	mov    %rsi,%rax
    282a:	48 01 c0             	add    %rax,%rax
    282d:	48 01 f0             	add    %rsi,%rax
    2830:	48 c1 e0 03          	shl    $0x3,%rax
    2834:	48 89 c6             	mov    %rax,%rsi
    2837:	48 8d 05 ca b4 01 00 	lea    0x1b4ca(%rip),%rax        # 1dd08 <spec_fd+0x8>
    283e:	89 0c 06             	mov    %ecx,(%rsi,%rax,1)
    2841:	48 63 c2             	movslq %edx,%rax
    2844:	48 8d 14 07          	lea    (%rdi,%rax,1),%rdx
    2848:	0f b6 45 fc          	movzbl -0x4(%rbp),%eax
    284c:	88 02                	mov    %al,(%rdx)
    284e:	8b 45 f8             	mov    -0x8(%rbp),%eax
    2851:	48 63 d0             	movslq %eax,%rdx
    2854:	48 89 d0             	mov    %rdx,%rax
    2857:	48 01 c0             	add    %rax,%rax
    285a:	48 01 d0             	add    %rdx,%rax
    285d:	48 c1 e0 03          	shl    $0x3,%rax
    2861:	48 89 c2             	mov    %rax,%rdx
    2864:	48 8d 05 99 b4 01 00 	lea    0x1b499(%rip),%rax        # 1dd04 <spec_fd+0x4>
    286b:	8b 04 02             	mov    (%rdx,%rax,1),%eax
    286e:	8d 48 01             	lea    0x1(%rax),%ecx
    2871:	8b 45 f8             	mov    -0x8(%rbp),%eax
    2874:	48 63 d0             	movslq %eax,%rdx
    2877:	48 89 d0             	mov    %rdx,%rax
    287a:	48 01 c0             	add    %rax,%rax
    287d:	48 01 d0             	add    %rdx,%rax
    2880:	48 c1 e0 03          	shl    $0x3,%rax
    2884:	48 89 c2             	mov    %rax,%rdx
    2887:	48 8d 05 76 b4 01 00 	lea    0x1b476(%rip),%rax        # 1dd04 <spec_fd+0x4>
    288e:	89 0c 02             	mov    %ecx,(%rdx,%rax,1)
    2891:	0f b6 45 fc          	movzbl -0x4(%rbp),%eax
    2895:	c9                   	leave  
    2896:	c3                   	ret    

0000000000002897 <main>:
    2897:	f3 0f 1e fa          	endbr64 
    289b:	55                   	push   %rbp
    289c:	48 89 e5             	mov    %rsp,%rbp
    289f:	48 83 ec 30          	sub    $0x30,%rsp
    28a3:	89 7d dc             	mov    %edi,-0x24(%rbp)
    28a6:	48 89 75 d0          	mov    %rsi,-0x30(%rbp)
    28aa:	c7 45 e8 40 00 00 00 	movl   $0x40,-0x18(%rbp)
    28b1:	48 8d 05 c9 69 01 00 	lea    0x169c9(%rip),%rax        # 19281 <_IO_stdin_used+0x281>
    28b8:	48 89 45 f0          	mov    %rax,-0x10(%rbp)
    28bc:	48 c7 05 81 b4 01 00 	movq   $0xa,0x1b481(%rip)        # 1dd48 <seedi>
    28c3:	0a 00 00 00 
    28c7:	83 7d dc 01          	cmpl   $0x1,-0x24(%rbp)
    28cb:	7e 0c                	jle    28d9 <main+0x42>
    28cd:	48 8b 45 d0          	mov    -0x30(%rbp),%rax
    28d1:	48 8b 40 08          	mov    0x8(%rax),%rax
    28d5:	48 89 45 f0          	mov    %rax,-0x10(%rbp)
    28d9:	83 7d dc 02          	cmpl   $0x2,-0x24(%rbp)
    28dd:	7e 16                	jle    28f5 <main+0x5e>
    28df:	48 8b 45 d0          	mov    -0x30(%rbp),%rax
    28e3:	48 83 c0 10          	add    $0x10,%rax
    28e7:	48 8b 00             	mov    (%rax),%rax
    28ea:	48 89 c7             	mov    %rax,%rdi
    28ed:	e8 8e e9 ff ff       	call   1280 <atoi@plt>
    28f2:	89 45 e8             	mov    %eax,-0x18(%rbp)
    28f5:	83 7d dc 03          	cmpl   $0x3,-0x24(%rbp)
    28f9:	7e 18                	jle    2913 <main+0x7c>
    28fb:	48 8b 45 d0          	mov    -0x30(%rbp),%rax
    28ff:	48 83 c0 18          	add    $0x18,%rax
    2903:	48 8b 00             	mov    (%rax),%rax
    2906:	48 89 c7             	mov    %rax,%rdi
    2909:	e8 72 e9 ff ff       	call   1280 <atoi@plt>
    290e:	89 45 ec             	mov    %eax,-0x14(%rbp)
    2911:	eb 06                	jmp    2919 <main+0x82>
    2913:	8b 45 e8             	mov    -0x18(%rbp),%eax
    2916:	89 45 ec             	mov    %eax,-0x14(%rbp)
    2919:	8b 45 e8             	mov    -0x18(%rbp),%eax
    291c:	c1 e0 14             	shl    $0x14,%eax
    291f:	89 05 db b3 01 00    	mov    %eax,0x1b3db(%rip)        # 1dd00 <spec_fd>
    2925:	8b 45 ec             	mov    -0x14(%rbp),%eax
    2928:	c1 e0 14             	shl    $0x14,%eax
    292b:	89 05 e7 b3 01 00    	mov    %eax,0x1b3e7(%rip)        # 1dd18 <spec_fd+0x18>
    2931:	8b 45 e8             	mov    -0x18(%rbp),%eax
    2934:	c1 e0 14             	shl    $0x14,%eax
    2937:	89 05 f3 b3 01 00    	mov    %eax,0x1b3f3(%rip)        # 1dd30 <spec_fd+0x30>
    293d:	b8 00 00 00 00       	mov    $0x0,%eax
    2942:	e8 65 eb ff ff       	call   14ac <spec_init>
    2947:	b8 00 00 00 00       	mov    $0x0,%eax
    294c:	e8 41 03 00 00       	call   2c92 <debug_time>
    2951:	8b 05 b9 a6 01 00    	mov    0x1a6b9(%rip),%eax        # 1d010 <dbglvl>
    2957:	83 f8 02             	cmp    $0x2,%eax
    295a:	7e 0f                	jle    296b <main+0xd4>
    295c:	48 8d 05 2d 69 01 00 	lea    0x1692d(%rip),%rax        # 19290 <_IO_stdin_used+0x290>
    2963:	48 89 c7             	mov    %rax,%rdi
    2966:	e8 45 e8 ff ff       	call   11b0 <puts@plt>
    296b:	8b 45 e8             	mov    -0x18(%rbp),%eax
    296e:	c1 e0 14             	shl    $0x14,%eax
    2971:	89 c2                	mov    %eax,%edx
    2973:	48 8b 45 f0          	mov    -0x10(%rbp),%rax
    2977:	48 89 c6             	mov    %rax,%rsi
    297a:	bf 00 00 00 00       	mov    $0x0,%edi
    297f:	e8 a4 ee ff ff       	call   1828 <spec_load>
    2984:	8b 05 86 a6 01 00    	mov    0x1a686(%rip),%eax        # 1d010 <dbglvl>
    298a:	83 f8 03             	cmp    $0x3,%eax
    298d:	7e 1c                	jle    29ab <main+0x114>
    298f:	8b 05 6f b3 01 00    	mov    0x1b36f(%rip),%eax        # 1dd04 <spec_fd+0x4>
    2995:	89 c6                	mov    %eax,%esi
    2997:	48 8d 05 0a 69 01 00 	lea    0x1690a(%rip),%rax        # 192a8 <_IO_stdin_used+0x2a8>
    299e:	48 89 c7             	mov    %rax,%rdi
    29a1:	b8 00 00 00 00       	mov    $0x0,%eax
    29a6:	e8 35 e8 ff ff       	call   11e0 <printf@plt>
    29ab:	8b 45 e8             	mov    -0x18(%rbp),%eax
    29ae:	c1 e0 0a             	shl    $0xa,%eax
    29b1:	48 98                	cltq   
    29b3:	48 89 c7             	mov    %rax,%rdi
    29b6:	e8 95 e8 ff ff       	call   1250 <malloc@plt>
    29bb:	48 89 45 f8          	mov    %rax,-0x8(%rbp)
    29bf:	48 83 7d f8 00       	cmpq   $0x0,-0x8(%rbp)
    29c4:	75 19                	jne    29df <main+0x148>
    29c6:	48 8d 05 fa 68 01 00 	lea    0x168fa(%rip),%rax        # 192c7 <_IO_stdin_used+0x2c7>
    29cd:	48 89 c7             	mov    %rax,%rdi
    29d0:	e8 db e7 ff ff       	call   11b0 <puts@plt>
    29d5:	bf 00 00 00 00       	mov    $0x0,%edi
    29da:	e8 c1 e8 ff ff       	call   12a0 <exit@plt>
    29df:	c7 45 e0 00 00 00 00 	movl   $0x0,-0x20(%rbp)
    29e6:	eb 2b                	jmp    2a13 <main+0x17c>
    29e8:	48 8b 15 21 b3 01 00 	mov    0x1b321(%rip),%rdx        # 1dd10 <spec_fd+0x10>
    29ef:	8b 45 e0             	mov    -0x20(%rbp),%eax
    29f2:	69 c0 03 04 00 00    	imul   $0x403,%eax,%eax
    29f8:	48 98                	cltq   
    29fa:	48 01 d0             	add    %rdx,%rax
    29fd:	8b 55 e0             	mov    -0x20(%rbp),%edx
    2a00:	48 63 ca             	movslq %edx,%rcx
    2a03:	48 8b 55 f8          	mov    -0x8(%rbp),%rdx
    2a07:	48 01 ca             	add    %rcx,%rdx
    2a0a:	0f b6 00             	movzbl (%rax),%eax
    2a0d:	88 02                	mov    %al,(%rdx)
    2a0f:	83 45 e0 01          	addl   $0x1,-0x20(%rbp)
    2a13:	8b 45 e0             	mov    -0x20(%rbp),%eax
    2a16:	69 c0 03 04 00 00    	imul   $0x403,%eax,%eax
    2a1c:	8b 55 e8             	mov    -0x18(%rbp),%edx
    2a1f:	c1 e2 14             	shl    $0x14,%edx
    2a22:	39 d0                	cmp    %edx,%eax
    2a24:	7c c2                	jl     29e8 <main+0x151>
    2a26:	b8 00 00 00 00       	mov    $0x0,%eax
    2a2b:	e8 d1 01 00 00       	call   2c01 <spec_initbufs>
    2a30:	c7 45 e4 05 00 00 00 	movl   $0x5,-0x1c(%rbp)
    2a37:	e9 9b 01 00 00       	jmp    2bd7 <main+0x340>
    2a3c:	b8 00 00 00 00       	mov    $0x0,%eax
    2a41:	e8 4c 02 00 00       	call   2c92 <debug_time>
    2a46:	8b 05 c4 a5 01 00    	mov    0x1a5c4(%rip),%eax        # 1d010 <dbglvl>
    2a4c:	83 f8 02             	cmp    $0x2,%eax
    2a4f:	7e 19                	jle    2a6a <main+0x1d3>
    2a51:	8b 45 e4             	mov    -0x1c(%rbp),%eax
    2a54:	89 c6                	mov    %eax,%esi
    2a56:	48 8d 05 8b 68 01 00 	lea    0x1688b(%rip),%rax        # 192e8 <_IO_stdin_used+0x2e8>
    2a5d:	48 89 c7             	mov    %rax,%rdi
    2a60:	b8 00 00 00 00       	mov    $0x0,%eax
    2a65:	e8 76 e7 ff ff       	call   11e0 <printf@plt>
    2a6a:	8b 45 e4             	mov    -0x1c(%rbp),%eax
    2a6d:	89 c2                	mov    %eax,%edx
    2a6f:	be 01 00 00 00       	mov    $0x1,%esi
    2a74:	bf 00 00 00 00       	mov    $0x0,%edi
    2a79:	e8 b3 01 00 00       	call   2c31 <spec_compress>
    2a7e:	b8 00 00 00 00       	mov    $0x0,%eax
    2a83:	e8 0a 02 00 00       	call   2c92 <debug_time>
    2a88:	8b 05 82 a5 01 00    	mov    0x1a582(%rip),%eax        # 1d010 <dbglvl>
    2a8e:	83 f8 03             	cmp    $0x3,%eax
    2a91:	7e 1c                	jle    2aaf <main+0x218>
    2a93:	8b 05 83 b2 01 00    	mov    0x1b283(%rip),%eax        # 1dd1c <spec_fd+0x1c>
    2a99:	89 c6                	mov    %eax,%esi
    2a9b:	48 8d 05 6e 68 01 00 	lea    0x1686e(%rip),%rax        # 19310 <_IO_stdin_used+0x310>
    2aa2:	48 89 c7             	mov    %rax,%rdi
    2aa5:	b8 00 00 00 00       	mov    $0x0,%eax
    2aaa:	e8 31 e7 ff ff       	call   11e0 <printf@plt>
    2aaf:	bf 00 00 00 00       	mov    $0x0,%edi
    2ab4:	e8 d0 f8 ff ff       	call   2389 <spec_reset>
    2ab9:	bf 01 00 00 00       	mov    $0x1,%edi
    2abe:	e8 90 f8 ff ff       	call   2353 <spec_rewind>
    2ac3:	b8 00 00 00 00       	mov    $0x0,%eax
    2ac8:	e8 c5 01 00 00       	call   2c92 <debug_time>
    2acd:	8b 05 3d a5 01 00    	mov    0x1a53d(%rip),%eax        # 1d010 <dbglvl>
    2ad3:	83 f8 02             	cmp    $0x2,%eax
    2ad6:	7e 0f                	jle    2ae7 <main+0x250>
    2ad8:	48 8d 05 55 68 01 00 	lea    0x16855(%rip),%rax        # 19334 <_IO_stdin_used+0x334>
    2adf:	48 89 c7             	mov    %rax,%rdi
    2ae2:	e8 c9 e6 ff ff       	call   11b0 <puts@plt>
    2ae7:	8b 45 e4             	mov    -0x1c(%rbp),%eax
    2aea:	89 c2                	mov    %eax,%edx
    2aec:	be 00 00 00 00       	mov    $0x0,%esi
    2af1:	bf 01 00 00 00       	mov    $0x1,%edi
    2af6:	e8 66 01 00 00       	call   2c61 <spec_uncompress>
    2afb:	b8 00 00 00 00       	mov    $0x0,%eax
    2b00:	e8 8d 01 00 00       	call   2c92 <debug_time>
    2b05:	8b 05 05 a5 01 00    	mov    0x1a505(%rip),%eax        # 1d010 <dbglvl>
    2b0b:	83 f8 03             	cmp    $0x3,%eax
    2b0e:	7e 1c                	jle    2b2c <main+0x295>
    2b10:	8b 05 ee b1 01 00    	mov    0x1b1ee(%rip),%eax        # 1dd04 <spec_fd+0x4>
    2b16:	89 c6                	mov    %eax,%esi
    2b18:	48 8d 05 29 68 01 00 	lea    0x16829(%rip),%rax        # 19348 <_IO_stdin_used+0x348>
    2b1f:	48 89 c7             	mov    %rax,%rdi
    2b22:	b8 00 00 00 00       	mov    $0x0,%eax
    2b27:	e8 b4 e6 ff ff       	call   11e0 <printf@plt>
    2b2c:	c7 45 e0 00 00 00 00 	movl   $0x0,-0x20(%rbp)
    2b33:	eb 53                	jmp    2b88 <main+0x2f1>
    2b35:	8b 45 e0             	mov    -0x20(%rbp),%eax
    2b38:	48 63 d0             	movslq %eax,%rdx
    2b3b:	48 8b 45 f8          	mov    -0x8(%rbp),%rax
    2b3f:	48 01 d0             	add    %rdx,%rax
    2b42:	0f b6 10             	movzbl (%rax),%edx
    2b45:	48 8b 0d c4 b1 01 00 	mov    0x1b1c4(%rip),%rcx        # 1dd10 <spec_fd+0x10>
    2b4c:	8b 45 e0             	mov    -0x20(%rbp),%eax
    2b4f:	69 c0 03 04 00 00    	imul   $0x403,%eax,%eax
    2b55:	48 98                	cltq   
    2b57:	48 01 c8             	add    %rcx,%rax
    2b5a:	0f b6 00             	movzbl (%rax),%eax
    2b5d:	38 c2                	cmp    %al,%dl
    2b5f:	74 23                	je     2b84 <main+0x2ed>
    2b61:	8b 45 e8             	mov    -0x18(%rbp),%eax
    2b64:	89 c6                	mov    %eax,%esi
    2b66:	48 8d 05 03 68 01 00 	lea    0x16803(%rip),%rax        # 19370 <_IO_stdin_used+0x370>
    2b6d:	48 89 c7             	mov    %rax,%rdi
    2b70:	b8 00 00 00 00       	mov    $0x0,%eax
    2b75:	e8 66 e6 ff ff       	call   11e0 <printf@plt>
    2b7a:	bf 00 00 00 00       	mov    $0x0,%edi
    2b7f:	e8 1c e7 ff ff       	call   12a0 <exit@plt>
    2b84:	83 45 e0 01          	addl   $0x1,-0x20(%rbp)
    2b88:	8b 45 e0             	mov    -0x20(%rbp),%eax
    2b8b:	69 c0 03 04 00 00    	imul   $0x403,%eax,%eax
    2b91:	8b 55 e8             	mov    -0x18(%rbp),%edx
    2b94:	c1 e2 14             	shl    $0x14,%edx
    2b97:	39 d0                	cmp    %edx,%eax
    2b99:	7c 9a                	jl     2b35 <main+0x29e>
    2b9b:	b8 00 00 00 00       	mov    $0x0,%eax
    2ba0:	e8 ed 00 00 00       	call   2c92 <debug_time>
    2ba5:	8b 05 65 a4 01 00    	mov    0x1a465(%rip),%eax        # 1d010 <dbglvl>
    2bab:	83 f8 03             	cmp    $0x3,%eax
    2bae:	7e 0f                	jle    2bbf <main+0x328>
    2bb0:	48 8d 05 e1 67 01 00 	lea    0x167e1(%rip),%rax        # 19398 <_IO_stdin_used+0x398>
    2bb7:	48 89 c7             	mov    %rax,%rdi
    2bba:	e8 f1 e5 ff ff       	call   11b0 <puts@plt>
    2bbf:	bf 01 00 00 00       	mov    $0x1,%edi
    2bc4:	e8 c0 f7 ff ff       	call   2389 <spec_reset>
    2bc9:	bf 00 00 00 00       	mov    $0x0,%edi
    2bce:	e8 80 f7 ff ff       	call   2353 <spec_rewind>
    2bd3:	83 45 e4 02          	addl   $0x2,-0x1c(%rbp)
    2bd7:	83 7d e4 09          	cmpl   $0x9,-0x1c(%rbp)
    2bdb:	0f 8e 5b fe ff ff    	jle    2a3c <main+0x1a5>
    2be1:	8b 45 e8             	mov    -0x18(%rbp),%eax
    2be4:	89 c6                	mov    %eax,%esi
    2be6:	48 8d 05 d0 67 01 00 	lea    0x167d0(%rip),%rax        # 193bd <_IO_stdin_used+0x3bd>
    2bed:	48 89 c7             	mov    %rax,%rdi
    2bf0:	b8 00 00 00 00       	mov    $0x0,%eax
    2bf5:	e8 e6 e5 ff ff       	call   11e0 <printf@plt>
    2bfa:	b8 00 00 00 00       	mov    $0x0,%eax
    2bff:	c9                   	leave  
    2c00:	c3                   	ret    

0000000000002c01 <spec_initbufs>:
    2c01:	f3 0f 1e fa          	endbr64 
    2c05:	55                   	push   %rbp
    2c06:	48 89 e5             	mov    %rsp,%rbp
    2c09:	c6 05 55 b1 01 00 00 	movb   $0x0,0x1b155(%rip)        # 1dd65 <smallMode>
    2c10:	c7 05 46 b1 01 00 00 	movl   $0x0,0x1b146(%rip)        # 1dd60 <verbosity>
    2c17:	00 00 00 
    2c1a:	c7 05 50 b1 01 00 09 	movl   $0x9,0x1b150(%rip)        # 1dd74 <blockSize100k>
    2c21:	00 00 00 
    2c24:	c7 05 e2 c1 01 00 1e 	movl   $0x1e,0x1c1e2(%rip)        # 1ee10 <workFactor>
    2c2b:	00 00 00 
    2c2e:	90                   	nop
    2c2f:	5d                   	pop    %rbp
    2c30:	c3                   	ret    

0000000000002c31 <spec_compress>:
    2c31:	f3 0f 1e fa          	endbr64 
    2c35:	55                   	push   %rbp
    2c36:	48 89 e5             	mov    %rsp,%rbp
    2c39:	48 83 ec 10          	sub    $0x10,%rsp
    2c3d:	89 7d fc             	mov    %edi,-0x4(%rbp)
    2c40:	89 75 f8             	mov    %esi,-0x8(%rbp)
    2c43:	89 55 f4             	mov    %edx,-0xc(%rbp)
    2c46:	8b 45 f4             	mov    -0xc(%rbp),%eax
    2c49:	89 05 25 b1 01 00    	mov    %eax,0x1b125(%rip)        # 1dd74 <blockSize100k>
    2c4f:	8b 55 f8             	mov    -0x8(%rbp),%edx
    2c52:	8b 45 fc             	mov    -0x4(%rbp),%eax
    2c55:	89 d6                	mov    %edx,%esi
    2c57:	89 c7                	mov    %eax,%edi
    2c59:	e8 a7 40 00 00       	call   6d05 <compressStream>
    2c5e:	90                   	nop
    2c5f:	c9                   	leave  
    2c60:	c3                   	ret    

0000000000002c61 <spec_uncompress>:
    2c61:	f3 0f 1e fa          	endbr64 
    2c65:	55                   	push   %rbp
    2c66:	48 89 e5             	mov    %rsp,%rbp
    2c69:	48 83 ec 10          	sub    $0x10,%rsp
    2c6d:	89 7d fc             	mov    %edi,-0x4(%rbp)
    2c70:	89 75 f8             	mov    %esi,-0x8(%rbp)
    2c73:	89 55 f4             	mov    %edx,-0xc(%rbp)
    2c76:	c7 05 f4 b0 01 00 00 	movl   $0x0,0x1b0f4(%rip)        # 1dd74 <blockSize100k>
    2c7d:	00 00 00 
    2c80:	8b 55 f8             	mov    -0x8(%rbp),%edx
    2c83:	8b 45 fc             	mov    -0x4(%rbp),%eax
    2c86:	89 d6                	mov    %edx,%esi
    2c88:	89 c7                	mov    %eax,%edi
    2c8a:	e8 8a 44 00 00       	call   7119 <uncompressStream>
    2c8f:	90                   	nop
    2c90:	c9                   	leave  
    2c91:	c3                   	ret    

0000000000002c92 <debug_time>:
    2c92:	f3 0f 1e fa          	endbr64 
    2c96:	55                   	push   %rbp
    2c97:	48 89 e5             	mov    %rsp,%rbp
    2c9a:	b8 00 00 00 00       	mov    $0x0,%eax
    2c9f:	5d                   	pop    %rbp
    2ca0:	c3                   	ret    

0000000000002ca1 <fallbackSimpleSort>:
    2ca1:	f3 0f 1e fa          	endbr64 
    2ca5:	55                   	push   %rbp
    2ca6:	48 89 e5             	mov    %rsp,%rbp
    2ca9:	48 89 7d e8          	mov    %rdi,-0x18(%rbp)
    2cad:	48 89 75 e0          	mov    %rsi,-0x20(%rbp)
    2cb1:	89 55 dc             	mov    %edx,-0x24(%rbp)
    2cb4:	89 4d d8             	mov    %ecx,-0x28(%rbp)
    2cb7:	8b 45 dc             	mov    -0x24(%rbp),%eax
    2cba:	3b 45 d8             	cmp    -0x28(%rbp),%eax
    2cbd:	0f 84 c7 01 00 00    	je     2e8a <fallbackSimpleSort+0x1e9>
    2cc3:	8b 45 d8             	mov    -0x28(%rbp),%eax
    2cc6:	2b 45 dc             	sub    -0x24(%rbp),%eax
    2cc9:	83 f8 03             	cmp    $0x3,%eax
    2ccc:	0f 8e db 00 00 00    	jle    2dad <fallbackSimpleSort+0x10c>
    2cd2:	8b 45 d8             	mov    -0x28(%rbp),%eax
    2cd5:	83 e8 04             	sub    $0x4,%eax
    2cd8:	89 45 f0             	mov    %eax,-0x10(%rbp)
    2cdb:	e9 c1 00 00 00       	jmp    2da1 <fallbackSimpleSort+0x100>
    2ce0:	8b 45 f0             	mov    -0x10(%rbp),%eax
    2ce3:	48 98                	cltq   
    2ce5:	48 8d 14 85 00 00 00 	lea    0x0(,%rax,4),%rdx
    2cec:	00 
    2ced:	48 8b 45 e8          	mov    -0x18(%rbp),%rax
    2cf1:	48 01 d0             	add    %rdx,%rax
    2cf4:	8b 00                	mov    (%rax),%eax
    2cf6:	89 45 f8             	mov    %eax,-0x8(%rbp)
    2cf9:	8b 45 f8             	mov    -0x8(%rbp),%eax
    2cfc:	48 98                	cltq   
    2cfe:	48 8d 14 85 00 00 00 	lea    0x0(,%rax,4),%rdx
    2d05:	00 
    2d06:	48 8b 45 e0          	mov    -0x20(%rbp),%rax
    2d0a:	48 01 d0             	add    %rdx,%rax
    2d0d:	8b 00                	mov    (%rax),%eax
    2d0f:	89 45 fc             	mov    %eax,-0x4(%rbp)
    2d12:	8b 45 f0             	mov    -0x10(%rbp),%eax
    2d15:	83 c0 04             	add    $0x4,%eax
    2d18:	89 45 f4             	mov    %eax,-0xc(%rbp)
    2d1b:	eb 31                	jmp    2d4e <fallbackSimpleSort+0xad>
    2d1d:	8b 45 f4             	mov    -0xc(%rbp),%eax
    2d20:	48 98                	cltq   
    2d22:	48 8d 14 85 00 00 00 	lea    0x0(,%rax,4),%rdx
    2d29:	00 
    2d2a:	48 8b 45 e8          	mov    -0x18(%rbp),%rax
    2d2e:	48 01 d0             	add    %rdx,%rax
    2d31:	8b 55 f4             	mov    -0xc(%rbp),%edx
    2d34:	48 63 d2             	movslq %edx,%rdx
    2d37:	48 c1 e2 02          	shl    $0x2,%rdx
    2d3b:	48 8d 4a f0          	lea    -0x10(%rdx),%rcx
    2d3f:	48 8b 55 e8          	mov    -0x18(%rbp),%rdx
    2d43:	48 01 ca             	add    %rcx,%rdx
    2d46:	8b 00                	mov    (%rax),%eax
    2d48:	89 02                	mov    %eax,(%rdx)
    2d4a:	83 45 f4 04          	addl   $0x4,-0xc(%rbp)
    2d4e:	8b 45 f4             	mov    -0xc(%rbp),%eax
    2d51:	3b 45 d8             	cmp    -0x28(%rbp),%eax
    2d54:	7f 2e                	jg     2d84 <fallbackSimpleSort+0xe3>
    2d56:	8b 45 f4             	mov    -0xc(%rbp),%eax
    2d59:	48 98                	cltq   
    2d5b:	48 8d 14 85 00 00 00 	lea    0x0(,%rax,4),%rdx
    2d62:	00 
    2d63:	48 8b 45 e8          	mov    -0x18(%rbp),%rax
    2d67:	48 01 d0             	add    %rdx,%rax
    2d6a:	8b 00                	mov    (%rax),%eax
    2d6c:	89 c0                	mov    %eax,%eax
    2d6e:	48 8d 14 85 00 00 00 	lea    0x0(,%rax,4),%rdx
    2d75:	00 
    2d76:	48 8b 45 e0          	mov    -0x20(%rbp),%rax
    2d7a:	48 01 d0             	add    %rdx,%rax
    2d7d:	8b 00                	mov    (%rax),%eax
    2d7f:	39 45 fc             	cmp    %eax,-0x4(%rbp)
    2d82:	77 99                	ja     2d1d <fallbackSimpleSort+0x7c>
    2d84:	8b 45 f4             	mov    -0xc(%rbp),%eax
    2d87:	48 98                	cltq   
    2d89:	48 c1 e0 02          	shl    $0x2,%rax
    2d8d:	48 8d 50 f0          	lea    -0x10(%rax),%rdx
    2d91:	48 8b 45 e8          	mov    -0x18(%rbp),%rax
    2d95:	48 01 c2             	add    %rax,%rdx
    2d98:	8b 45 f8             	mov    -0x8(%rbp),%eax
    2d9b:	89 02                	mov    %eax,(%rdx)
    2d9d:	83 6d f0 01          	subl   $0x1,-0x10(%rbp)
    2da1:	8b 45 f0             	mov    -0x10(%rbp),%eax
    2da4:	3b 45 dc             	cmp    -0x24(%rbp),%eax
    2da7:	0f 8d 33 ff ff ff    	jge    2ce0 <fallbackSimpleSort+0x3f>
    2dad:	8b 45 d8             	mov    -0x28(%rbp),%eax
    2db0:	83 e8 01             	sub    $0x1,%eax
    2db3:	89 45 f0             	mov    %eax,-0x10(%rbp)
    2db6:	e9 c1 00 00 00       	jmp    2e7c <fallbackSimpleSort+0x1db>
    2dbb:	8b 45 f0             	mov    -0x10(%rbp),%eax
    2dbe:	48 98                	cltq   
    2dc0:	48 8d 14 85 00 00 00 	lea    0x0(,%rax,4),%rdx
    2dc7:	00 
    2dc8:	48 8b 45 e8          	mov    -0x18(%rbp),%rax
    2dcc:	48 01 d0             	add    %rdx,%rax
    2dcf:	8b 00                	mov    (%rax),%eax
    2dd1:	89 45 f8             	mov    %eax,-0x8(%rbp)
    2dd4:	8b 45 f8             	mov    -0x8(%rbp),%eax
    2dd7:	48 98                	cltq   
    2dd9:	48 8d 14 85 00 00 00 	lea    0x0(,%rax,4),%rdx
    2de0:	00 
    2de1:	48 8b 45 e0          	mov    -0x20(%rbp),%rax
    2de5:	48 01 d0             	add    %rdx,%rax
    2de8:	8b 00                	mov    (%rax),%eax
    2dea:	89 45 fc             	mov    %eax,-0x4(%rbp)
    2ded:	8b 45 f0             	mov    -0x10(%rbp),%eax
    2df0:	83 c0 01             	add    $0x1,%eax
    2df3:	89 45 f4             	mov    %eax,-0xc(%rbp)
    2df6:	eb 31                	jmp    2e29 <fallbackSimpleSort+0x188>
    2df8:	8b 45 f4             	mov    -0xc(%rbp),%eax
    2dfb:	48 98                	cltq   
    2dfd:	48 8d 14 85 00 00 00 	lea    0x0(,%rax,4),%rdx
    2e04:	00 
    2e05:	48 8b 45 e8          	mov    -0x18(%rbp),%rax
    2e09:	48 01 d0             	add    %rdx,%rax
    2e0c:	8b 55 f4             	mov    -0xc(%rbp),%edx
    2e0f:	48 63 d2             	movslq %edx,%rdx
    2e12:	48 c1 e2 02          	shl    $0x2,%rdx
    2e16:	48 8d 4a fc          	lea    -0x4(%rdx),%rcx
    2e1a:	48 8b 55 e8          	mov    -0x18(%rbp),%rdx
    2e1e:	48 01 ca             	add    %rcx,%rdx
    2e21:	8b 00                	mov    (%rax),%eax
    2e23:	89 02                	mov    %eax,(%rdx)
    2e25:	83 45 f4 01          	addl   $0x1,-0xc(%rbp)
    2e29:	8b 45 f4             	mov    -0xc(%rbp),%eax
    2e2c:	3b 45 d8             	cmp    -0x28(%rbp),%eax
    2e2f:	7f 2e                	jg     2e5f <fallbackSimpleSort+0x1be>
    2e31:	8b 45 f4             	mov    -0xc(%rbp),%eax
    2e34:	48 98                	cltq   
    2e36:	48 8d 14 85 00 00 00 	lea    0x0(,%rax,4),%rdx
    2e3d:	00 
    2e3e:	48 8b 45 e8          	mov    -0x18(%rbp),%rax
    2e42:	48 01 d0             	add    %rdx,%rax
    2e45:	8b 00                	mov    (%rax),%eax
    2e47:	89 c0                	mov    %eax,%eax
    2e49:	48 8d 14 85 00 00 00 	lea    0x0(,%rax,4),%rdx
    2e50:	00 
    2e51:	48 8b 45 e0          	mov    -0x20(%rbp),%rax
    2e55:	48 01 d0             	add    %rdx,%rax
    2e58:	8b 00                	mov    (%rax),%eax
    2e5a:	39 45 fc             	cmp    %eax,-0x4(%rbp)
    2e5d:	77 99                	ja     2df8 <fallbackSimpleSort+0x157>
    2e5f:	8b 45 f4             	mov    -0xc(%rbp),%eax
    2e62:	48 98                	cltq   
    2e64:	48 c1 e0 02          	shl    $0x2,%rax
    2e68:	48 8d 50 fc          	lea    -0x4(%rax),%rdx
    2e6c:	48 8b 45 e8          	mov    -0x18(%rbp),%rax
    2e70:	48 01 c2             	add    %rax,%rdx
    2e73:	8b 45 f8             	mov    -0x8(%rbp),%eax
    2e76:	89 02                	mov    %eax,(%rdx)
    2e78:	83 6d f0 01          	subl   $0x1,-0x10(%rbp)
    2e7c:	8b 45 f0             	mov    -0x10(%rbp),%eax
    2e7f:	3b 45 dc             	cmp    -0x24(%rbp),%eax
    2e82:	0f 8d 33 ff ff ff    	jge    2dbb <fallbackSimpleSort+0x11a>
    2e88:	eb 01                	jmp    2e8b <fallbackSimpleSort+0x1ea>
    2e8a:	90                   	nop
    2e8b:	5d                   	pop    %rbp
    2e8c:	c3                   	ret    

0000000000002e8d <fallbackQSort3>:
    2e8d:	f3 0f 1e fa          	endbr64 
    2e91:	55                   	push   %rbp
    2e92:	48 89 e5             	mov    %rsp,%rbp
    2e95:	48 81 ec b0 03 00 00 	sub    $0x3b0,%rsp
    2e9c:	48 89 bd 68 fc ff ff 	mov    %rdi,-0x398(%rbp)
    2ea3:	48 89 b5 60 fc ff ff 	mov    %rsi,-0x3a0(%rbp)
    2eaa:	89 95 5c fc ff ff    	mov    %edx,-0x3a4(%rbp)
    2eb0:	89 8d 58 fc ff ff    	mov    %ecx,-0x3a8(%rbp)
    2eb6:	64 48 8b 04 25 28 00 	mov    %fs:0x28,%rax
    2ebd:	00 00 
    2ebf:	48 89 45 f8          	mov    %rax,-0x8(%rbp)
    2ec3:	31 c0                	xor    %eax,%eax
    2ec5:	c7 85 8c fc ff ff 00 	movl   $0x0,-0x374(%rbp)
    2ecc:	00 00 00 
    2ecf:	c7 85 84 fc ff ff 00 	movl   $0x0,-0x37c(%rbp)
    2ed6:	00 00 00 
    2ed9:	8b 85 84 fc ff ff    	mov    -0x37c(%rbp),%eax
    2edf:	48 98                	cltq   
    2ee1:	8b 95 5c fc ff ff    	mov    -0x3a4(%rbp),%edx
    2ee7:	89 94 85 d0 fc ff ff 	mov    %edx,-0x330(%rbp,%rax,4)
    2eee:	8b 85 84 fc ff ff    	mov    -0x37c(%rbp),%eax
    2ef4:	48 98                	cltq   
    2ef6:	8b 95 58 fc ff ff    	mov    -0x3a8(%rbp),%edx
    2efc:	89 94 85 60 fe ff ff 	mov    %edx,-0x1a0(%rbp,%rax,4)
    2f03:	83 85 84 fc ff ff 01 	addl   $0x1,-0x37c(%rbp)
    2f0a:	e9 81 07 00 00       	jmp    3690 <fallbackQSort3+0x803>
    2f0f:	83 bd 84 fc ff ff 63 	cmpl   $0x63,-0x37c(%rbp)
    2f16:	7e 0a                	jle    2f22 <fallbackQSort3+0x95>
    2f18:	bf ec 03 00 00       	mov    $0x3ec,%edi
    2f1d:	e8 77 4d 00 00       	call   7c99 <BZ2_bz__AssertH__fail>
    2f22:	83 ad 84 fc ff ff 01 	subl   $0x1,-0x37c(%rbp)
    2f29:	8b 85 84 fc ff ff    	mov    -0x37c(%rbp),%eax
    2f2f:	48 98                	cltq   
    2f31:	8b 84 85 d0 fc ff ff 	mov    -0x330(%rbp,%rax,4),%eax
    2f38:	89 85 a8 fc ff ff    	mov    %eax,-0x358(%rbp)
    2f3e:	8b 85 84 fc ff ff    	mov    -0x37c(%rbp),%eax
    2f44:	48 98                	cltq   
    2f46:	8b 84 85 60 fe ff ff 	mov    -0x1a0(%rbp,%rax,4),%eax
    2f4d:	89 85 ac fc ff ff    	mov    %eax,-0x354(%rbp)
    2f53:	8b 85 ac fc ff ff    	mov    -0x354(%rbp),%eax
    2f59:	2b 85 a8 fc ff ff    	sub    -0x358(%rbp),%eax
    2f5f:	83 f8 09             	cmp    $0x9,%eax
    2f62:	7f 27                	jg     2f8b <fallbackQSort3+0xfe>
    2f64:	8b 8d ac fc ff ff    	mov    -0x354(%rbp),%ecx
    2f6a:	8b 95 a8 fc ff ff    	mov    -0x358(%rbp),%edx
    2f70:	48 8b b5 60 fc ff ff 	mov    -0x3a0(%rbp),%rsi
    2f77:	48 8b 85 68 fc ff ff 	mov    -0x398(%rbp),%rax
    2f7e:	48 89 c7             	mov    %rax,%rdi
    2f81:	e8 1b fd ff ff       	call   2ca1 <fallbackSimpleSort>
    2f86:	e9 05 07 00 00       	jmp    3690 <fallbackQSort3+0x803>
    2f8b:	8b 85 8c fc ff ff    	mov    -0x374(%rbp),%eax
    2f91:	69 c0 c5 1d 00 00    	imul   $0x1dc5,%eax,%eax
    2f97:	83 c0 01             	add    $0x1,%eax
    2f9a:	25 ff 7f 00 00       	and    $0x7fff,%eax
    2f9f:	89 85 8c fc ff ff    	mov    %eax,-0x374(%rbp)
    2fa5:	8b 95 8c fc ff ff    	mov    -0x374(%rbp),%edx
    2fab:	89 d1                	mov    %edx,%ecx
    2fad:	b8 ab aa aa aa       	mov    $0xaaaaaaab,%eax
    2fb2:	48 0f af c1          	imul   %rcx,%rax
    2fb6:	48 c1 e8 20          	shr    $0x20,%rax
    2fba:	89 c1                	mov    %eax,%ecx
    2fbc:	d1 e9                	shr    %ecx
    2fbe:	89 c8                	mov    %ecx,%eax
    2fc0:	01 c0                	add    %eax,%eax
    2fc2:	01 c8                	add    %ecx,%eax
    2fc4:	29 c2                	sub    %eax,%edx
    2fc6:	89 95 b0 fc ff ff    	mov    %edx,-0x350(%rbp)
    2fcc:	83 bd b0 fc ff ff 00 	cmpl   $0x0,-0x350(%rbp)
    2fd3:	75 3d                	jne    3012 <fallbackQSort3+0x185>
    2fd5:	8b 85 a8 fc ff ff    	mov    -0x358(%rbp),%eax
    2fdb:	48 98                	cltq   
    2fdd:	48 8d 14 85 00 00 00 	lea    0x0(,%rax,4),%rdx
    2fe4:	00 
    2fe5:	48 8b 85 68 fc ff ff 	mov    -0x398(%rbp),%rax
    2fec:	48 01 d0             	add    %rdx,%rax
    2fef:	8b 00                	mov    (%rax),%eax
    2ff1:	89 c0                	mov    %eax,%eax
    2ff3:	48 8d 14 85 00 00 00 	lea    0x0(,%rax,4),%rdx
    2ffa:	00 
    2ffb:	48 8b 85 60 fc ff ff 	mov    -0x3a0(%rbp),%rax
    3002:	48 01 d0             	add    %rdx,%rax
    3005:	8b 00                	mov    (%rax),%eax
    3007:	89 85 88 fc ff ff    	mov    %eax,-0x378(%rbp)
    300d:	e9 85 00 00 00       	jmp    3097 <fallbackQSort3+0x20a>
    3012:	83 bd b0 fc ff ff 01 	cmpl   $0x1,-0x350(%rbp)
    3019:	75 44                	jne    305f <fallbackQSort3+0x1d2>
    301b:	8b 95 a8 fc ff ff    	mov    -0x358(%rbp),%edx
    3021:	8b 85 ac fc ff ff    	mov    -0x354(%rbp),%eax
    3027:	01 d0                	add    %edx,%eax
    3029:	d1 f8                	sar    %eax
    302b:	48 98                	cltq   
    302d:	48 8d 14 85 00 00 00 	lea    0x0(,%rax,4),%rdx
    3034:	00 
    3035:	48 8b 85 68 fc ff ff 	mov    -0x398(%rbp),%rax
    303c:	48 01 d0             	add    %rdx,%rax
    303f:	8b 00                	mov    (%rax),%eax
    3041:	89 c0                	mov    %eax,%eax
    3043:	48 8d 14 85 00 00 00 	lea    0x0(,%rax,4),%rdx
    304a:	00 
    304b:	48 8b 85 60 fc ff ff 	mov    -0x3a0(%rbp),%rax
    3052:	48 01 d0             	add    %rdx,%rax
    3055:	8b 00                	mov    (%rax),%eax
    3057:	89 85 88 fc ff ff    	mov    %eax,-0x378(%rbp)
    305d:	eb 38                	jmp    3097 <fallbackQSort3+0x20a>
    305f:	8b 85 ac fc ff ff    	mov    -0x354(%rbp),%eax
    3065:	48 98                	cltq   
    3067:	48 8d 14 85 00 00 00 	lea    0x0(,%rax,4),%rdx
    306e:	00 
    306f:	48 8b 85 68 fc ff ff 	mov    -0x398(%rbp),%rax
    3076:	48 01 d0             	add    %rdx,%rax
    3079:	8b 00                	mov    (%rax),%eax
    307b:	89 c0                	mov    %eax,%eax
    307d:	48 8d 14 85 00 00 00 	lea    0x0(,%rax,4),%rdx
    3084:	00 
    3085:	48 8b 85 60 fc ff ff 	mov    -0x3a0(%rbp),%rax
    308c:	48 01 d0             	add    %rdx,%rax
    308f:	8b 00                	mov    (%rax),%eax
    3091:	89 85 88 fc ff ff    	mov    %eax,-0x378(%rbp)
    3097:	8b 85 a8 fc ff ff    	mov    -0x358(%rbp),%eax
    309d:	89 85 7c fc ff ff    	mov    %eax,-0x384(%rbp)
    30a3:	8b 85 7c fc ff ff    	mov    -0x384(%rbp),%eax
    30a9:	89 85 74 fc ff ff    	mov    %eax,-0x38c(%rbp)
    30af:	8b 85 ac fc ff ff    	mov    -0x354(%rbp),%eax
    30b5:	89 85 80 fc ff ff    	mov    %eax,-0x380(%rbp)
    30bb:	8b 85 80 fc ff ff    	mov    -0x380(%rbp),%eax
    30c1:	89 85 78 fc ff ff    	mov    %eax,-0x388(%rbp)
    30c7:	8b 85 74 fc ff ff    	mov    -0x38c(%rbp),%eax
    30cd:	3b 85 78 fc ff ff    	cmp    -0x388(%rbp),%eax
    30d3:	0f 8f ef 00 00 00    	jg     31c8 <fallbackQSort3+0x33b>
    30d9:	8b 85 74 fc ff ff    	mov    -0x38c(%rbp),%eax
    30df:	48 98                	cltq   
    30e1:	48 8d 14 85 00 00 00 	lea    0x0(,%rax,4),%rdx
    30e8:	00 
    30e9:	48 8b 85 68 fc ff ff 	mov    -0x398(%rbp),%rax
    30f0:	48 01 d0             	add    %rdx,%rax
    30f3:	8b 00                	mov    (%rax),%eax
    30f5:	89 c0                	mov    %eax,%eax
    30f7:	48 8d 14 85 00 00 00 	lea    0x0(,%rax,4),%rdx
    30fe:	00 
    30ff:	48 8b 85 60 fc ff ff 	mov    -0x3a0(%rbp),%rax
    3106:	48 01 d0             	add    %rdx,%rax
    3109:	8b 00                	mov    (%rax),%eax
    310b:	8b 95 88 fc ff ff    	mov    -0x378(%rbp),%edx
    3111:	29 d0                	sub    %edx,%eax
    3113:	89 85 b4 fc ff ff    	mov    %eax,-0x34c(%rbp)
    3119:	83 bd b4 fc ff ff 00 	cmpl   $0x0,-0x34c(%rbp)
    3120:	0f 85 8d 00 00 00    	jne    31b3 <fallbackQSort3+0x326>
    3126:	8b 85 74 fc ff ff    	mov    -0x38c(%rbp),%eax
    312c:	48 98                	cltq   
    312e:	48 8d 14 85 00 00 00 	lea    0x0(,%rax,4),%rdx
    3135:	00 
    3136:	48 8b 85 68 fc ff ff 	mov    -0x398(%rbp),%rax
    313d:	48 01 d0             	add    %rdx,%rax
    3140:	8b 00                	mov    (%rax),%eax
    3142:	89 85 b8 fc ff ff    	mov    %eax,-0x348(%rbp)
    3148:	8b 85 7c fc ff ff    	mov    -0x384(%rbp),%eax
    314e:	48 98                	cltq   
    3150:	48 8d 14 85 00 00 00 	lea    0x0(,%rax,4),%rdx
    3157:	00 
    3158:	48 8b 85 68 fc ff ff 	mov    -0x398(%rbp),%rax
    315f:	48 01 d0             	add    %rdx,%rax
    3162:	8b 95 74 fc ff ff    	mov    -0x38c(%rbp),%edx
    3168:	48 63 d2             	movslq %edx,%rdx
    316b:	48 8d 0c 95 00 00 00 	lea    0x0(,%rdx,4),%rcx
    3172:	00 
    3173:	48 8b 95 68 fc ff ff 	mov    -0x398(%rbp),%rdx
    317a:	48 01 ca             	add    %rcx,%rdx
    317d:	8b 00                	mov    (%rax),%eax
    317f:	89 02                	mov    %eax,(%rdx)
    3181:	8b 85 7c fc ff ff    	mov    -0x384(%rbp),%eax
    3187:	48 98                	cltq   
    3189:	48 8d 14 85 00 00 00 	lea    0x0(,%rax,4),%rdx
    3190:	00 
    3191:	48 8b 85 68 fc ff ff 	mov    -0x398(%rbp),%rax
    3198:	48 01 c2             	add    %rax,%rdx
    319b:	8b 85 b8 fc ff ff    	mov    -0x348(%rbp),%eax
    31a1:	89 02                	mov    %eax,(%rdx)
    31a3:	83 85 7c fc ff ff 01 	addl   $0x1,-0x384(%rbp)
    31aa:	83 85 74 fc ff ff 01 	addl   $0x1,-0x38c(%rbp)
    31b1:	eb 10                	jmp    31c3 <fallbackQSort3+0x336>
    31b3:	83 bd b4 fc ff ff 00 	cmpl   $0x0,-0x34c(%rbp)
    31ba:	7f 0f                	jg     31cb <fallbackQSort3+0x33e>
    31bc:	83 85 74 fc ff ff 01 	addl   $0x1,-0x38c(%rbp)
    31c3:	e9 ff fe ff ff       	jmp    30c7 <fallbackQSort3+0x23a>
    31c8:	90                   	nop
    31c9:	eb 01                	jmp    31cc <fallbackQSort3+0x33f>
    31cb:	90                   	nop
    31cc:	8b 85 74 fc ff ff    	mov    -0x38c(%rbp),%eax
    31d2:	3b 85 78 fc ff ff    	cmp    -0x388(%rbp),%eax
    31d8:	0f 8f ef 00 00 00    	jg     32cd <fallbackQSort3+0x440>
    31de:	8b 85 78 fc ff ff    	mov    -0x388(%rbp),%eax
    31e4:	48 98                	cltq   
    31e6:	48 8d 14 85 00 00 00 	lea    0x0(,%rax,4),%rdx
    31ed:	00 
    31ee:	48 8b 85 68 fc ff ff 	mov    -0x398(%rbp),%rax
    31f5:	48 01 d0             	add    %rdx,%rax
    31f8:	8b 00                	mov    (%rax),%eax
    31fa:	89 c0                	mov    %eax,%eax
    31fc:	48 8d 14 85 00 00 00 	lea    0x0(,%rax,4),%rdx
    3203:	00 
    3204:	48 8b 85 60 fc ff ff 	mov    -0x3a0(%rbp),%rax
    320b:	48 01 d0             	add    %rdx,%rax
    320e:	8b 00                	mov    (%rax),%eax
    3210:	8b 95 88 fc ff ff    	mov    -0x378(%rbp),%edx
    3216:	29 d0                	sub    %edx,%eax
    3218:	89 85 b4 fc ff ff    	mov    %eax,-0x34c(%rbp)
    321e:	83 bd b4 fc ff ff 00 	cmpl   $0x0,-0x34c(%rbp)
    3225:	0f 85 8d 00 00 00    	jne    32b8 <fallbackQSort3+0x42b>
    322b:	8b 85 78 fc ff ff    	mov    -0x388(%rbp),%eax
    3231:	48 98                	cltq   
    3233:	48 8d 14 85 00 00 00 	lea    0x0(,%rax,4),%rdx
    323a:	00 
    323b:	48 8b 85 68 fc ff ff 	mov    -0x398(%rbp),%rax
    3242:	48 01 d0             	add    %rdx,%rax
    3245:	8b 00                	mov    (%rax),%eax
    3247:	89 85 bc fc ff ff    	mov    %eax,-0x344(%rbp)
    324d:	8b 85 80 fc ff ff    	mov    -0x380(%rbp),%eax
    3253:	48 98                	cltq   
    3255:	48 8d 14 85 00 00 00 	lea    0x0(,%rax,4),%rdx
    325c:	00 
    325d:	48 8b 85 68 fc ff ff 	mov    -0x398(%rbp),%rax
    3264:	48 01 d0             	add    %rdx,%rax
    3267:	8b 95 78 fc ff ff    	mov    -0x388(%rbp),%edx
    326d:	48 63 d2             	movslq %edx,%rdx
    3270:	48 8d 0c 95 00 00 00 	lea    0x0(,%rdx,4),%rcx
    3277:	00 
    3278:	48 8b 95 68 fc ff ff 	mov    -0x398(%rbp),%rdx
    327f:	48 01 ca             	add    %rcx,%rdx
    3282:	8b 00                	mov    (%rax),%eax
    3284:	89 02                	mov    %eax,(%rdx)
    3286:	8b 85 80 fc ff ff    	mov    -0x380(%rbp),%eax
    328c:	48 98                	cltq   
    328e:	48 8d 14 85 00 00 00 	lea    0x0(,%rax,4),%rdx
    3295:	00 
    3296:	48 8b 85 68 fc ff ff 	mov    -0x398(%rbp),%rax
    329d:	48 01 c2             	add    %rax,%rdx
    32a0:	8b 85 bc fc ff ff    	mov    -0x344(%rbp),%eax
    32a6:	89 02                	mov    %eax,(%rdx)
    32a8:	83 ad 80 fc ff ff 01 	subl   $0x1,-0x380(%rbp)
    32af:	83 ad 78 fc ff ff 01 	subl   $0x1,-0x388(%rbp)
    32b6:	eb 10                	jmp    32c8 <fallbackQSort3+0x43b>
    32b8:	83 bd b4 fc ff ff 00 	cmpl   $0x0,-0x34c(%rbp)
    32bf:	78 0f                	js     32d0 <fallbackQSort3+0x443>
    32c1:	83 ad 78 fc ff ff 01 	subl   $0x1,-0x388(%rbp)
    32c8:	e9 ff fe ff ff       	jmp    31cc <fallbackQSort3+0x33f>
    32cd:	90                   	nop
    32ce:	eb 01                	jmp    32d1 <fallbackQSort3+0x444>
    32d0:	90                   	nop
    32d1:	8b 85 74 fc ff ff    	mov    -0x38c(%rbp),%eax
    32d7:	3b 85 78 fc ff ff    	cmp    -0x388(%rbp),%eax
    32dd:	0f 8f 90 00 00 00    	jg     3373 <fallbackQSort3+0x4e6>
    32e3:	8b 85 74 fc ff ff    	mov    -0x38c(%rbp),%eax
    32e9:	48 98                	cltq   
    32eb:	48 8d 14 85 00 00 00 	lea    0x0(,%rax,4),%rdx
    32f2:	00 
    32f3:	48 8b 85 68 fc ff ff 	mov    -0x398(%rbp),%rax
    32fa:	48 01 d0             	add    %rdx,%rax
    32fd:	8b 00                	mov    (%rax),%eax
    32ff:	89 85 c0 fc ff ff    	mov    %eax,-0x340(%rbp)
    3305:	8b 85 78 fc ff ff    	mov    -0x388(%rbp),%eax
    330b:	48 98                	cltq   
    330d:	48 8d 14 85 00 00 00 	lea    0x0(,%rax,4),%rdx
    3314:	00 
    3315:	48 8b 85 68 fc ff ff 	mov    -0x398(%rbp),%rax
    331c:	48 01 d0             	add    %rdx,%rax
    331f:	8b 95 74 fc ff ff    	mov    -0x38c(%rbp),%edx
    3325:	48 63 d2             	movslq %edx,%rdx
    3328:	48 8d 0c 95 00 00 00 	lea    0x0(,%rdx,4),%rcx
    332f:	00 
    3330:	48 8b 95 68 fc ff ff 	mov    -0x398(%rbp),%rdx
    3337:	48 01 ca             	add    %rcx,%rdx
    333a:	8b 00                	mov    (%rax),%eax
    333c:	89 02                	mov    %eax,(%rdx)
    333e:	8b 85 78 fc ff ff    	mov    -0x388(%rbp),%eax
    3344:	48 98                	cltq   
    3346:	48 8d 14 85 00 00 00 	lea    0x0(,%rax,4),%rdx
    334d:	00 
    334e:	48 8b 85 68 fc ff ff 	mov    -0x398(%rbp),%rax
    3355:	48 01 c2             	add    %rax,%rdx
    3358:	8b 85 c0 fc ff ff    	mov    -0x340(%rbp),%eax
    335e:	89 02                	mov    %eax,(%rdx)
    3360:	83 85 74 fc ff ff 01 	addl   $0x1,-0x38c(%rbp)
    3367:	83 ad 78 fc ff ff 01 	subl   $0x1,-0x388(%rbp)
    336e:	e9 54 fd ff ff       	jmp    30c7 <fallbackQSort3+0x23a>
    3373:	90                   	nop
    3374:	8b 85 80 fc ff ff    	mov    -0x380(%rbp),%eax
    337a:	3b 85 7c fc ff ff    	cmp    -0x384(%rbp),%eax
    3380:	7d 05                	jge    3387 <fallbackQSort3+0x4fa>
    3382:	e9 09 03 00 00       	jmp    3690 <fallbackQSort3+0x803>
    3387:	8b 85 74 fc ff ff    	mov    -0x38c(%rbp),%eax
    338d:	2b 85 7c fc ff ff    	sub    -0x384(%rbp),%eax
    3393:	89 c2                	mov    %eax,%edx
    3395:	8b 85 7c fc ff ff    	mov    -0x384(%rbp),%eax
    339b:	2b 85 a8 fc ff ff    	sub    -0x358(%rbp),%eax
    33a1:	39 c2                	cmp    %eax,%edx
    33a3:	0f 4e c2             	cmovle %edx,%eax
    33a6:	89 85 b4 fc ff ff    	mov    %eax,-0x34c(%rbp)
    33ac:	8b 85 a8 fc ff ff    	mov    -0x358(%rbp),%eax
    33b2:	89 85 90 fc ff ff    	mov    %eax,-0x370(%rbp)
    33b8:	8b 85 74 fc ff ff    	mov    -0x38c(%rbp),%eax
    33be:	2b 85 b4 fc ff ff    	sub    -0x34c(%rbp),%eax
    33c4:	89 85 94 fc ff ff    	mov    %eax,-0x36c(%rbp)
    33ca:	8b 85 b4 fc ff ff    	mov    -0x34c(%rbp),%eax
    33d0:	89 85 98 fc ff ff    	mov    %eax,-0x368(%rbp)
    33d6:	e9 92 00 00 00       	jmp    346d <fallbackQSort3+0x5e0>
    33db:	8b 85 90 fc ff ff    	mov    -0x370(%rbp),%eax
    33e1:	48 98                	cltq   
    33e3:	48 8d 14 85 00 00 00 	lea    0x0(,%rax,4),%rdx
    33ea:	00 
    33eb:	48 8b 85 68 fc ff ff 	mov    -0x398(%rbp),%rax
    33f2:	48 01 d0             	add    %rdx,%rax
    33f5:	8b 00                	mov    (%rax),%eax
    33f7:	89 85 cc fc ff ff    	mov    %eax,-0x334(%rbp)
    33fd:	8b 85 94 fc ff ff    	mov    -0x36c(%rbp),%eax
    3403:	48 98                	cltq   
    3405:	48 8d 14 85 00 00 00 	lea    0x0(,%rax,4),%rdx
    340c:	00 
    340d:	48 8b 85 68 fc ff ff 	mov    -0x398(%rbp),%rax
    3414:	48 01 d0             	add    %rdx,%rax
    3417:	8b 95 90 fc ff ff    	mov    -0x370(%rbp),%edx
    341d:	48 63 d2             	movslq %edx,%rdx
    3420:	48 8d 0c 95 00 00 00 	lea    0x0(,%rdx,4),%rcx
    3427:	00 
    3428:	48 8b 95 68 fc ff ff 	mov    -0x398(%rbp),%rdx
    342f:	48 01 ca             	add    %rcx,%rdx
    3432:	8b 00                	mov    (%rax),%eax
    3434:	89 02                	mov    %eax,(%rdx)
    3436:	8b 85 94 fc ff ff    	mov    -0x36c(%rbp),%eax
    343c:	48 98                	cltq   
    343e:	48 8d 14 85 00 00 00 	lea    0x0(,%rax,4),%rdx
    3445:	00 
    3446:	48 8b 85 68 fc ff ff 	mov    -0x398(%rbp),%rax
    344d:	48 01 c2             	add    %rax,%rdx
    3450:	8b 85 cc fc ff ff    	mov    -0x334(%rbp),%eax
    3456:	89 02                	mov    %eax,(%rdx)
    3458:	83 85 90 fc ff ff 01 	addl   $0x1,-0x370(%rbp)
    345f:	83 85 94 fc ff ff 01 	addl   $0x1,-0x36c(%rbp)
    3466:	83 ad 98 fc ff ff 01 	subl   $0x1,-0x368(%rbp)
    346d:	83 bd 98 fc ff ff 00 	cmpl   $0x0,-0x368(%rbp)
    3474:	0f 8f 61 ff ff ff    	jg     33db <fallbackQSort3+0x54e>
    347a:	8b 85 80 fc ff ff    	mov    -0x380(%rbp),%eax
    3480:	2b 85 78 fc ff ff    	sub    -0x388(%rbp),%eax
    3486:	89 c2                	mov    %eax,%edx
    3488:	8b 85 ac fc ff ff    	mov    -0x354(%rbp),%eax
    348e:	2b 85 80 fc ff ff    	sub    -0x380(%rbp),%eax
    3494:	39 c2                	cmp    %eax,%edx
    3496:	0f 4e c2             	cmovle %edx,%eax
    3499:	89 85 c4 fc ff ff    	mov    %eax,-0x33c(%rbp)
    349f:	8b 85 74 fc ff ff    	mov    -0x38c(%rbp),%eax
    34a5:	89 85 9c fc ff ff    	mov    %eax,-0x364(%rbp)
    34ab:	8b 85 ac fc ff ff    	mov    -0x354(%rbp),%eax
    34b1:	2b 85 c4 fc ff ff    	sub    -0x33c(%rbp),%eax
    34b7:	83 c0 01             	add    $0x1,%eax
    34ba:	89 85 a0 fc ff ff    	mov    %eax,-0x360(%rbp)
    34c0:	8b 85 c4 fc ff ff    	mov    -0x33c(%rbp),%eax
    34c6:	89 85 a4 fc ff ff    	mov    %eax,-0x35c(%rbp)
    34cc:	e9 92 00 00 00       	jmp    3563 <fallbackQSort3+0x6d6>
    34d1:	8b 85 9c fc ff ff    	mov    -0x364(%rbp),%eax
    34d7:	48 98                	cltq   
    34d9:	48 8d 14 85 00 00 00 	lea    0x0(,%rax,4),%rdx
    34e0:	00 
    34e1:	48 8b 85 68 fc ff ff 	mov    -0x398(%rbp),%rax
    34e8:	48 01 d0             	add    %rdx,%rax
    34eb:	8b 00                	mov    (%rax),%eax
    34ed:	89 85 c8 fc ff ff    	mov    %eax,-0x338(%rbp)
    34f3:	8b 85 a0 fc ff ff    	mov    -0x360(%rbp),%eax
    34f9:	48 98                	cltq   
    34fb:	48 8d 14 85 00 00 00 	lea    0x0(,%rax,4),%rdx
    3502:	00 
    3503:	48 8b 85 68 fc ff ff 	mov    -0x398(%rbp),%rax
    350a:	48 01 d0             	add    %rdx,%rax
    350d:	8b 95 9c fc ff ff    	mov    -0x364(%rbp),%edx
    3513:	48 63 d2             	movslq %edx,%rdx
    3516:	48 8d 0c 95 00 00 00 	lea    0x0(,%rdx,4),%rcx
    351d:	00 
    351e:	48 8b 95 68 fc ff ff 	mov    -0x398(%rbp),%rdx
    3525:	48 01 ca             	add    %rcx,%rdx
    3528:	8b 00                	mov    (%rax),%eax
    352a:	89 02                	mov    %eax,(%rdx)
    352c:	8b 85 a0 fc ff ff    	mov    -0x360(%rbp),%eax
    3532:	48 98                	cltq   
    3534:	48 8d 14 85 00 00 00 	lea    0x0(,%rax,4),%rdx
    353b:	00 
    353c:	48 8b 85 68 fc ff ff 	mov    -0x398(%rbp),%rax
    3543:	48 01 c2             	add    %rax,%rdx
    3546:	8b 85 c8 fc ff ff    	mov    -0x338(%rbp),%eax
    354c:	89 02                	mov    %eax,(%rdx)
    354e:	83 85 9c fc ff ff 01 	addl   $0x1,-0x364(%rbp)
    3555:	83 85 a0 fc ff ff 01 	addl   $0x1,-0x360(%rbp)
    355c:	83 ad a4 fc ff ff 01 	subl   $0x1,-0x35c(%rbp)
    3563:	83 bd a4 fc ff ff 00 	cmpl   $0x0,-0x35c(%rbp)
    356a:	0f 8f 61 ff ff ff    	jg     34d1 <fallbackQSort3+0x644>
    3570:	8b 95 a8 fc ff ff    	mov    -0x358(%rbp),%edx
    3576:	8b 85 74 fc ff ff    	mov    -0x38c(%rbp),%eax
    357c:	01 d0                	add    %edx,%eax
    357e:	2b 85 7c fc ff ff    	sub    -0x384(%rbp),%eax
    3584:	83 e8 01             	sub    $0x1,%eax
    3587:	89 85 b4 fc ff ff    	mov    %eax,-0x34c(%rbp)
    358d:	8b 85 80 fc ff ff    	mov    -0x380(%rbp),%eax
    3593:	2b 85 78 fc ff ff    	sub    -0x388(%rbp),%eax
    3599:	89 c2                	mov    %eax,%edx
    359b:	8b 85 ac fc ff ff    	mov    -0x354(%rbp),%eax
    35a1:	29 d0                	sub    %edx,%eax
    35a3:	83 c0 01             	add    $0x1,%eax
    35a6:	89 85 c4 fc ff ff    	mov    %eax,-0x33c(%rbp)
    35ac:	8b 85 b4 fc ff ff    	mov    -0x34c(%rbp),%eax
    35b2:	2b 85 a8 fc ff ff    	sub    -0x358(%rbp),%eax
    35b8:	89 c2                	mov    %eax,%edx
    35ba:	8b 85 ac fc ff ff    	mov    -0x354(%rbp),%eax
    35c0:	2b 85 c4 fc ff ff    	sub    -0x33c(%rbp),%eax
    35c6:	39 c2                	cmp    %eax,%edx
    35c8:	7e 64                	jle    362e <fallbackQSort3+0x7a1>
    35ca:	8b 85 84 fc ff ff    	mov    -0x37c(%rbp),%eax
    35d0:	48 98                	cltq   
    35d2:	8b 95 a8 fc ff ff    	mov    -0x358(%rbp),%edx
    35d8:	89 94 85 d0 fc ff ff 	mov    %edx,-0x330(%rbp,%rax,4)
    35df:	8b 85 84 fc ff ff    	mov    -0x37c(%rbp),%eax
    35e5:	48 98                	cltq   
    35e7:	8b 95 b4 fc ff ff    	mov    -0x34c(%rbp),%edx
    35ed:	89 94 85 60 fe ff ff 	mov    %edx,-0x1a0(%rbp,%rax,4)
    35f4:	83 85 84 fc ff ff 01 	addl   $0x1,-0x37c(%rbp)
    35fb:	8b 85 84 fc ff ff    	mov    -0x37c(%rbp),%eax
    3601:	48 98                	cltq   
    3603:	8b 95 c4 fc ff ff    	mov    -0x33c(%rbp),%edx
    3609:	89 94 85 d0 fc ff ff 	mov    %edx,-0x330(%rbp,%rax,4)
    3610:	8b 85 84 fc ff ff    	mov    -0x37c(%rbp),%eax
    3616:	48 98                	cltq   
    3618:	8b 95 ac fc ff ff    	mov    -0x354(%rbp),%edx
    361e:	89 94 85 60 fe ff ff 	mov    %edx,-0x1a0(%rbp,%rax,4)
    3625:	83 85 84 fc ff ff 01 	addl   $0x1,-0x37c(%rbp)
    362c:	eb 62                	jmp    3690 <fallbackQSort3+0x803>
    362e:	8b 85 84 fc ff ff    	mov    -0x37c(%rbp),%eax
    3634:	48 98                	cltq   
    3636:	8b 95 c4 fc ff ff    	mov    -0x33c(%rbp),%edx
    363c:	89 94 85 d0 fc ff ff 	mov    %edx,-0x330(%rbp,%rax,4)
    3643:	8b 85 84 fc ff ff    	mov    -0x37c(%rbp),%eax
    3649:	48 98                	cltq   
    364b:	8b 95 ac fc ff ff    	mov    -0x354(%rbp),%edx
    3651:	89 94 85 60 fe ff ff 	mov    %edx,-0x1a0(%rbp,%rax,4)
    3658:	83 85 84 fc ff ff 01 	addl   $0x1,-0x37c(%rbp)
    365f:	8b 85 84 fc ff ff    	mov    -0x37c(%rbp),%eax
    3665:	48 98                	cltq   
    3667:	8b 95 a8 fc ff ff    	mov    -0x358(%rbp),%edx
    366d:	89 94 85 d0 fc ff ff 	mov    %edx,-0x330(%rbp,%rax,4)
    3674:	8b 85 84 fc ff ff    	mov    -0x37c(%rbp),%eax
    367a:	48 98                	cltq   
    367c:	8b 95 b4 fc ff ff    	mov    -0x34c(%rbp),%edx
    3682:	89 94 85 60 fe ff ff 	mov    %edx,-0x1a0(%rbp,%rax,4)
    3689:	83 85 84 fc ff ff 01 	addl   $0x1,-0x37c(%rbp)
    3690:	83 bd 84 fc ff ff 00 	cmpl   $0x0,-0x37c(%rbp)
    3697:	0f 8f 72 f8 ff ff    	jg     2f0f <fallbackQSort3+0x82>
    369d:	90                   	nop
    369e:	48 8b 45 f8          	mov    -0x8(%rbp),%rax
    36a2:	64 48 2b 04 25 28 00 	sub    %fs:0x28,%rax
    36a9:	00 00 
    36ab:	74 05                	je     36b2 <fallbackQSort3+0x825>
    36ad:	e8 1e db ff ff       	call   11d0 <__stack_chk_fail@plt>
    36b2:	c9                   	leave  
    36b3:	c3                   	ret    

00000000000036b4 <fallbackSort>:
    36b4:	f3 0f 1e fa          	endbr64 
    36b8:	55                   	push   %rbp
    36b9:	48 89 e5             	mov    %rsp,%rbp
    36bc:	48 81 ec 60 08 00 00 	sub    $0x860,%rsp
    36c3:	48 89 bd b8 f7 ff ff 	mov    %rdi,-0x848(%rbp)
    36ca:	48 89 b5 b0 f7 ff ff 	mov    %rsi,-0x850(%rbp)
    36d1:	48 89 95 a8 f7 ff ff 	mov    %rdx,-0x858(%rbp)
    36d8:	89 8d a4 f7 ff ff    	mov    %ecx,-0x85c(%rbp)
    36de:	44 89 85 a0 f7 ff ff 	mov    %r8d,-0x860(%rbp)
    36e5:	64 48 8b 04 25 28 00 	mov    %fs:0x28,%rax
    36ec:	00 00 
    36ee:	48 89 45 f8          	mov    %rax,-0x8(%rbp)
    36f2:	31 c0                	xor    %eax,%eax
    36f4:	48 8b 85 b0 f7 ff ff 	mov    -0x850(%rbp),%rax
    36fb:	48 89 85 e8 f7 ff ff 	mov    %rax,-0x818(%rbp)
    3702:	83 bd a0 f7 ff ff 03 	cmpl   $0x3,-0x860(%rbp)
    3709:	7e 23                	jle    372e <fallbackSort+0x7a>
    370b:	48 8b 05 ce a5 01 00 	mov    0x1a5ce(%rip),%rax        # 1dce0 <stderr@GLIBC_2.2.5>
    3712:	48 89 c1             	mov    %rax,%rcx
    3715:	ba 1b 00 00 00       	mov    $0x1b,%edx
    371a:	be 01 00 00 00       	mov    $0x1,%esi
    371f:	48 8d 05 ca 5c 01 00 	lea    0x15cca(%rip),%rax        # 193f0 <_IO_stdin_used+0x3f0>
    3726:	48 89 c7             	mov    %rax,%rdi
    3729:	e8 82 db ff ff       	call   12b0 <fwrite@plt>
    372e:	c7 85 c4 f7 ff ff 00 	movl   $0x0,-0x83c(%rbp)
    3735:	00 00 00 
    3738:	eb 1a                	jmp    3754 <fallbackSort+0xa0>
    373a:	8b 85 c4 f7 ff ff    	mov    -0x83c(%rbp),%eax
    3740:	48 98                	cltq   
    3742:	c7 84 85 f0 fb ff ff 	movl   $0x0,-0x410(%rbp,%rax,4)
    3749:	00 00 00 00 
    374d:	83 85 c4 f7 ff ff 01 	addl   $0x1,-0x83c(%rbp)
    3754:	81 bd c4 f7 ff ff 00 	cmpl   $0x100,-0x83c(%rbp)
    375b:	01 00 00 
    375e:	7e da                	jle    373a <fallbackSort+0x86>
    3760:	c7 85 c4 f7 ff ff 00 	movl   $0x0,-0x83c(%rbp)
    3767:	00 00 00 
    376a:	eb 36                	jmp    37a2 <fallbackSort+0xee>
    376c:	8b 85 c4 f7 ff ff    	mov    -0x83c(%rbp),%eax
    3772:	48 63 d0             	movslq %eax,%rdx
    3775:	48 8b 85 e8 f7 ff ff 	mov    -0x818(%rbp),%rax
    377c:	48 01 d0             	add    %rdx,%rax
    377f:	0f b6 00             	movzbl (%rax),%eax
    3782:	0f b6 c0             	movzbl %al,%eax
    3785:	48 63 d0             	movslq %eax,%rdx
    3788:	8b 94 95 f0 fb ff ff 	mov    -0x410(%rbp,%rdx,4),%edx
    378f:	83 c2 01             	add    $0x1,%edx
    3792:	48 98                	cltq   
    3794:	89 94 85 f0 fb ff ff 	mov    %edx,-0x410(%rbp,%rax,4)
    379b:	83 85 c4 f7 ff ff 01 	addl   $0x1,-0x83c(%rbp)
    37a2:	8b 85 c4 f7 ff ff    	mov    -0x83c(%rbp),%eax
    37a8:	3b 85 a4 f7 ff ff    	cmp    -0x85c(%rbp),%eax
    37ae:	7c bc                	jl     376c <fallbackSort+0xb8>
    37b0:	c7 85 c4 f7 ff ff 00 	movl   $0x0,-0x83c(%rbp)
    37b7:	00 00 00 
    37ba:	eb 25                	jmp    37e1 <fallbackSort+0x12d>
    37bc:	8b 85 c4 f7 ff ff    	mov    -0x83c(%rbp),%eax
    37c2:	48 98                	cltq   
    37c4:	8b 94 85 f0 fb ff ff 	mov    -0x410(%rbp,%rax,4),%edx
    37cb:	8b 85 c4 f7 ff ff    	mov    -0x83c(%rbp),%eax
    37d1:	48 98                	cltq   
    37d3:	89 94 85 f0 f7 ff ff 	mov    %edx,-0x810(%rbp,%rax,4)
    37da:	83 85 c4 f7 ff ff 01 	addl   $0x1,-0x83c(%rbp)
    37e1:	81 bd c4 f7 ff ff ff 	cmpl   $0xff,-0x83c(%rbp)
    37e8:	00 00 00 
    37eb:	7e cf                	jle    37bc <fallbackSort+0x108>
    37ed:	c7 85 c4 f7 ff ff 01 	movl   $0x1,-0x83c(%rbp)
    37f4:	00 00 00 
    37f7:	eb 39                	jmp    3832 <fallbackSort+0x17e>
    37f9:	8b 85 c4 f7 ff ff    	mov    -0x83c(%rbp),%eax
    37ff:	48 98                	cltq   
    3801:	8b 94 85 f0 fb ff ff 	mov    -0x410(%rbp,%rax,4),%edx
    3808:	8b 85 c4 f7 ff ff    	mov    -0x83c(%rbp),%eax
    380e:	83 e8 01             	sub    $0x1,%eax
    3811:	48 98                	cltq   
    3813:	8b 84 85 f0 fb ff ff 	mov    -0x410(%rbp,%rax,4),%eax
    381a:	01 c2                	add    %eax,%edx
    381c:	8b 85 c4 f7 ff ff    	mov    -0x83c(%rbp),%eax
    3822:	48 98                	cltq   
    3824:	89 94 85 f0 fb ff ff 	mov    %edx,-0x410(%rbp,%rax,4)
    382b:	83 85 c4 f7 ff ff 01 	addl   $0x1,-0x83c(%rbp)
    3832:	81 bd c4 f7 ff ff 00 	cmpl   $0x100,-0x83c(%rbp)
    3839:	01 00 00 
    383c:	7e bb                	jle    37f9 <fallbackSort+0x145>
    383e:	c7 85 c4 f7 ff ff 00 	movl   $0x0,-0x83c(%rbp)
    3845:	00 00 00 
    3848:	eb 75                	jmp    38bf <fallbackSort+0x20b>
    384a:	8b 85 c4 f7 ff ff    	mov    -0x83c(%rbp),%eax
    3850:	48 63 d0             	movslq %eax,%rdx
    3853:	48 8b 85 e8 f7 ff ff 	mov    -0x818(%rbp),%rax
    385a:	48 01 d0             	add    %rdx,%rax
    385d:	0f b6 00             	movzbl (%rax),%eax
    3860:	0f b6 c0             	movzbl %al,%eax
    3863:	89 85 c8 f7 ff ff    	mov    %eax,-0x838(%rbp)
    3869:	8b 85 c8 f7 ff ff    	mov    -0x838(%rbp),%eax
    386f:	48 98                	cltq   
    3871:	8b 84 85 f0 fb ff ff 	mov    -0x410(%rbp,%rax,4),%eax
    3878:	83 e8 01             	sub    $0x1,%eax
    387b:	89 85 cc f7 ff ff    	mov    %eax,-0x834(%rbp)
    3881:	8b 85 c8 f7 ff ff    	mov    -0x838(%rbp),%eax
    3887:	48 98                	cltq   
    3889:	8b 95 cc f7 ff ff    	mov    -0x834(%rbp),%edx
    388f:	89 94 85 f0 fb ff ff 	mov    %edx,-0x410(%rbp,%rax,4)
    3896:	8b 85 cc f7 ff ff    	mov    -0x834(%rbp),%eax
    389c:	48 98                	cltq   
    389e:	48 8d 14 85 00 00 00 	lea    0x0(,%rax,4),%rdx
    38a5:	00 
    38a6:	48 8b 85 b8 f7 ff ff 	mov    -0x848(%rbp),%rax
    38ad:	48 01 c2             	add    %rax,%rdx
    38b0:	8b 85 c4 f7 ff ff    	mov    -0x83c(%rbp),%eax
    38b6:	89 02                	mov    %eax,(%rdx)
    38b8:	83 85 c4 f7 ff ff 01 	addl   $0x1,-0x83c(%rbp)
    38bf:	8b 85 c4 f7 ff ff    	mov    -0x83c(%rbp),%eax
    38c5:	3b 85 a4 f7 ff ff    	cmp    -0x85c(%rbp),%eax
    38cb:	0f 8c 79 ff ff ff    	jl     384a <fallbackSort+0x196>
    38d1:	8b 85 a4 f7 ff ff    	mov    -0x85c(%rbp),%eax
    38d7:	8d 50 1f             	lea    0x1f(%rax),%edx
    38da:	85 c0                	test   %eax,%eax
    38dc:	0f 48 c2             	cmovs  %edx,%eax
    38df:	c1 f8 05             	sar    $0x5,%eax
    38e2:	83 c0 02             	add    $0x2,%eax
    38e5:	89 85 dc f7 ff ff    	mov    %eax,-0x824(%rbp)
    38eb:	c7 85 c4 f7 ff ff 00 	movl   $0x0,-0x83c(%rbp)
    38f2:	00 00 00 
    38f5:	eb 27                	jmp    391e <fallbackSort+0x26a>
    38f7:	8b 85 c4 f7 ff ff    	mov    -0x83c(%rbp),%eax
    38fd:	48 98                	cltq   
    38ff:	48 8d 14 85 00 00 00 	lea    0x0(,%rax,4),%rdx
    3906:	00 
    3907:	48 8b 85 a8 f7 ff ff 	mov    -0x858(%rbp),%rax
    390e:	48 01 d0             	add    %rdx,%rax
    3911:	c7 00 00 00 00 00    	movl   $0x0,(%rax)
    3917:	83 85 c4 f7 ff ff 01 	addl   $0x1,-0x83c(%rbp)
    391e:	8b 85 c4 f7 ff ff    	mov    -0x83c(%rbp),%eax
    3924:	3b 85 dc f7 ff ff    	cmp    -0x824(%rbp),%eax
    392a:	7c cb                	jl     38f7 <fallbackSort+0x243>
    392c:	c7 85 c4 f7 ff ff 00 	movl   $0x0,-0x83c(%rbp)
    3933:	00 00 00 
    3936:	eb 78                	jmp    39b0 <fallbackSort+0x2fc>
    3938:	8b 85 c4 f7 ff ff    	mov    -0x83c(%rbp),%eax
    393e:	48 98                	cltq   
    3940:	8b 84 85 f0 fb ff ff 	mov    -0x410(%rbp,%rax,4),%eax
    3947:	c1 f8 05             	sar    $0x5,%eax
    394a:	48 98                	cltq   
    394c:	48 8d 14 85 00 00 00 	lea    0x0(,%rax,4),%rdx
    3953:	00 
    3954:	48 8b 85 a8 f7 ff ff 	mov    -0x858(%rbp),%rax
    395b:	48 01 d0             	add    %rdx,%rax
    395e:	8b 10                	mov    (%rax),%edx
    3960:	8b 85 c4 f7 ff ff    	mov    -0x83c(%rbp),%eax
    3966:	48 98                	cltq   
    3968:	8b 84 85 f0 fb ff ff 	mov    -0x410(%rbp,%rax,4),%eax
    396f:	83 e0 1f             	and    $0x1f,%eax
    3972:	be 01 00 00 00       	mov    $0x1,%esi
    3977:	89 c1                	mov    %eax,%ecx
    3979:	d3 e6                	shl    %cl,%esi
    397b:	89 f0                	mov    %esi,%eax
    397d:	89 c6                	mov    %eax,%esi
    397f:	8b 85 c4 f7 ff ff    	mov    -0x83c(%rbp),%eax
    3985:	48 98                	cltq   
    3987:	8b 84 85 f0 fb ff ff 	mov    -0x410(%rbp,%rax,4),%eax
    398e:	c1 f8 05             	sar    $0x5,%eax
    3991:	48 98                	cltq   
    3993:	48 8d 0c 85 00 00 00 	lea    0x0(,%rax,4),%rcx
    399a:	00 
    399b:	48 8b 85 a8 f7 ff ff 	mov    -0x858(%rbp),%rax
    39a2:	48 01 c8             	add    %rcx,%rax
    39a5:	09 f2                	or     %esi,%edx
    39a7:	89 10                	mov    %edx,(%rax)
    39a9:	83 85 c4 f7 ff ff 01 	addl   $0x1,-0x83c(%rbp)
    39b0:	81 bd c4 f7 ff ff ff 	cmpl   $0xff,-0x83c(%rbp)
    39b7:	00 00 00 
    39ba:	0f 8e 78 ff ff ff    	jle    3938 <fallbackSort+0x284>
    39c0:	c7 85 c4 f7 ff ff 00 	movl   $0x0,-0x83c(%rbp)
    39c7:	00 00 00 
    39ca:	e9 00 01 00 00       	jmp    3acf <fallbackSort+0x41b>
    39cf:	8b 85 c4 f7 ff ff    	mov    -0x83c(%rbp),%eax
    39d5:	8d 14 00             	lea    (%rax,%rax,1),%edx
    39d8:	8b 85 a4 f7 ff ff    	mov    -0x85c(%rbp),%eax
    39de:	01 d0                	add    %edx,%eax
    39e0:	c1 f8 05             	sar    $0x5,%eax
    39e3:	48 98                	cltq   
    39e5:	48 8d 14 85 00 00 00 	lea    0x0(,%rax,4),%rdx
    39ec:	00 
    39ed:	48 8b 85 a8 f7 ff ff 	mov    -0x858(%rbp),%rax
    39f4:	48 01 d0             	add    %rdx,%rax
    39f7:	8b 10                	mov    (%rax),%edx
    39f9:	8b 85 c4 f7 ff ff    	mov    -0x83c(%rbp),%eax
    39ff:	8d 0c 00             	lea    (%rax,%rax,1),%ecx
    3a02:	8b 85 a4 f7 ff ff    	mov    -0x85c(%rbp),%eax
    3a08:	01 c8                	add    %ecx,%eax
    3a0a:	83 e0 1f             	and    $0x1f,%eax
    3a0d:	be 01 00 00 00       	mov    $0x1,%esi
    3a12:	89 c1                	mov    %eax,%ecx
    3a14:	d3 e6                	shl    %cl,%esi
    3a16:	89 f0                	mov    %esi,%eax
    3a18:	89 c6                	mov    %eax,%esi
    3a1a:	8b 85 c4 f7 ff ff    	mov    -0x83c(%rbp),%eax
    3a20:	8d 0c 00             	lea    (%rax,%rax,1),%ecx
    3a23:	8b 85 a4 f7 ff ff    	mov    -0x85c(%rbp),%eax
    3a29:	01 c8                	add    %ecx,%eax
    3a2b:	c1 f8 05             	sar    $0x5,%eax
    3a2e:	48 98                	cltq   
    3a30:	48 8d 0c 85 00 00 00 	lea    0x0(,%rax,4),%rcx
    3a37:	00 
    3a38:	48 8b 85 a8 f7 ff ff 	mov    -0x858(%rbp),%rax
    3a3f:	48 01 c8             	add    %rcx,%rax
    3a42:	09 f2                	or     %esi,%edx
    3a44:	89 10                	mov    %edx,(%rax)
    3a46:	8b 85 c4 f7 ff ff    	mov    -0x83c(%rbp),%eax
    3a4c:	8d 14 00             	lea    (%rax,%rax,1),%edx
    3a4f:	8b 85 a4 f7 ff ff    	mov    -0x85c(%rbp),%eax
    3a55:	01 d0                	add    %edx,%eax
    3a57:	83 c0 01             	add    $0x1,%eax
    3a5a:	c1 f8 05             	sar    $0x5,%eax
    3a5d:	48 98                	cltq   
    3a5f:	48 8d 14 85 00 00 00 	lea    0x0(,%rax,4),%rdx
    3a66:	00 
    3a67:	48 8b 85 a8 f7 ff ff 	mov    -0x858(%rbp),%rax
    3a6e:	48 01 d0             	add    %rdx,%rax
    3a71:	8b 10                	mov    (%rax),%edx
    3a73:	8b 85 c4 f7 ff ff    	mov    -0x83c(%rbp),%eax
    3a79:	8d 0c 00             	lea    (%rax,%rax,1),%ecx
    3a7c:	8b 85 a4 f7 ff ff    	mov    -0x85c(%rbp),%eax
    3a82:	01 c8                	add    %ecx,%eax
    3a84:	83 c0 01             	add    $0x1,%eax
    3a87:	83 e0 1f             	and    $0x1f,%eax
    3a8a:	be 01 00 00 00       	mov    $0x1,%esi
    3a8f:	89 c1                	mov    %eax,%ecx
    3a91:	d3 e6                	shl    %cl,%esi
    3a93:	89 f0                	mov    %esi,%eax
    3a95:	f7 d0                	not    %eax
    3a97:	89 c6                	mov    %eax,%esi
    3a99:	8b 85 c4 f7 ff ff    	mov    -0x83c(%rbp),%eax
    3a9f:	8d 0c 00             	lea    (%rax,%rax,1),%ecx
    3aa2:	8b 85 a4 f7 ff ff    	mov    -0x85c(%rbp),%eax
    3aa8:	01 c8                	add    %ecx,%eax
    3aaa:	83 c0 01             	add    $0x1,%eax
    3aad:	c1 f8 05             	sar    $0x5,%eax
    3ab0:	48 98                	cltq   
    3ab2:	48 8d 0c 85 00 00 00 	lea    0x0(,%rax,4),%rcx
    3ab9:	00 
    3aba:	48 8b 85 a8 f7 ff ff 	mov    -0x858(%rbp),%rax
    3ac1:	48 01 c8             	add    %rcx,%rax
    3ac4:	21 f2                	and    %esi,%edx
    3ac6:	89 10                	mov    %edx,(%rax)
    3ac8:	83 85 c4 f7 ff ff 01 	addl   $0x1,-0x83c(%rbp)
    3acf:	83 bd c4 f7 ff ff 1f 	cmpl   $0x1f,-0x83c(%rbp)
    3ad6:	0f 8e f3 fe ff ff    	jle    39cf <fallbackSort+0x31b>
    3adc:	c7 85 c0 f7 ff ff 01 	movl   $0x1,-0x840(%rbp)
    3ae3:	00 00 00 
    3ae6:	83 bd a0 f7 ff ff 03 	cmpl   $0x3,-0x860(%rbp)
    3aed:	7e 24                	jle    3b13 <fallbackSort+0x45f>
    3aef:	48 8b 05 ea a1 01 00 	mov    0x1a1ea(%rip),%rax        # 1dce0 <stderr@GLIBC_2.2.5>
    3af6:	8b 95 c0 f7 ff ff    	mov    -0x840(%rbp),%edx
    3afc:	48 8d 0d 09 59 01 00 	lea    0x15909(%rip),%rcx        # 1940c <_IO_stdin_used+0x40c>
    3b03:	48 89 ce             	mov    %rcx,%rsi
    3b06:	48 89 c7             	mov    %rax,%rdi
    3b09:	b8 00 00 00 00       	mov    $0x0,%eax
    3b0e:	e8 1d d7 ff ff       	call   1230 <fprintf@plt>
    3b13:	c7 85 c8 f7 ff ff 00 	movl   $0x0,-0x838(%rbp)
    3b1a:	00 00 00 
    3b1d:	c7 85 c4 f7 ff ff 00 	movl   $0x0,-0x83c(%rbp)
    3b24:	00 00 00 
    3b27:	e9 ad 00 00 00       	jmp    3bd9 <fallbackSort+0x525>
    3b2c:	8b 85 c4 f7 ff ff    	mov    -0x83c(%rbp),%eax
    3b32:	c1 f8 05             	sar    $0x5,%eax
    3b35:	48 98                	cltq   
    3b37:	48 8d 14 85 00 00 00 	lea    0x0(,%rax,4),%rdx
    3b3e:	00 
    3b3f:	48 8b 85 a8 f7 ff ff 	mov    -0x858(%rbp),%rax
    3b46:	48 01 d0             	add    %rdx,%rax
    3b49:	8b 10                	mov    (%rax),%edx
    3b4b:	8b 85 c4 f7 ff ff    	mov    -0x83c(%rbp),%eax
    3b51:	83 e0 1f             	and    $0x1f,%eax
    3b54:	be 01 00 00 00       	mov    $0x1,%esi
    3b59:	89 c1                	mov    %eax,%ecx
    3b5b:	d3 e6                	shl    %cl,%esi
    3b5d:	89 f0                	mov    %esi,%eax
    3b5f:	21 d0                	and    %edx,%eax
    3b61:	85 c0                	test   %eax,%eax
    3b63:	74 0c                	je     3b71 <fallbackSort+0x4bd>
    3b65:	8b 85 c4 f7 ff ff    	mov    -0x83c(%rbp),%eax
    3b6b:	89 85 c8 f7 ff ff    	mov    %eax,-0x838(%rbp)
    3b71:	8b 85 c4 f7 ff ff    	mov    -0x83c(%rbp),%eax
    3b77:	48 98                	cltq   
    3b79:	48 8d 14 85 00 00 00 	lea    0x0(,%rax,4),%rdx
    3b80:	00 
    3b81:	48 8b 85 b8 f7 ff ff 	mov    -0x848(%rbp),%rax
    3b88:	48 01 d0             	add    %rdx,%rax
    3b8b:	8b 00                	mov    (%rax),%eax
    3b8d:	8b 95 c0 f7 ff ff    	mov    -0x840(%rbp),%edx
    3b93:	29 d0                	sub    %edx,%eax
    3b95:	89 85 cc f7 ff ff    	mov    %eax,-0x834(%rbp)
    3b9b:	83 bd cc f7 ff ff 00 	cmpl   $0x0,-0x834(%rbp)
    3ba2:	79 0c                	jns    3bb0 <fallbackSort+0x4fc>
    3ba4:	8b 85 a4 f7 ff ff    	mov    -0x85c(%rbp),%eax
    3baa:	01 85 cc f7 ff ff    	add    %eax,-0x834(%rbp)
    3bb0:	8b 85 cc f7 ff ff    	mov    -0x834(%rbp),%eax
    3bb6:	48 98                	cltq   
    3bb8:	48 8d 14 85 00 00 00 	lea    0x0(,%rax,4),%rdx
    3bbf:	00 
    3bc0:	48 8b 85 b0 f7 ff ff 	mov    -0x850(%rbp),%rax
    3bc7:	48 01 c2             	add    %rax,%rdx
    3bca:	8b 85 c8 f7 ff ff    	mov    -0x838(%rbp),%eax
    3bd0:	89 02                	mov    %eax,(%rdx)
    3bd2:	83 85 c4 f7 ff ff 01 	addl   $0x1,-0x83c(%rbp)
    3bd9:	8b 85 c4 f7 ff ff    	mov    -0x83c(%rbp),%eax
    3bdf:	3b 85 a4 f7 ff ff    	cmp    -0x85c(%rbp),%eax
    3be5:	0f 8c 41 ff ff ff    	jl     3b2c <fallbackSort+0x478>
    3beb:	c7 85 d8 f7 ff ff 00 	movl   $0x0,-0x828(%rbp)
    3bf2:	00 00 00 
    3bf5:	c7 85 d0 f7 ff ff ff 	movl   $0xffffffff,-0x830(%rbp)
    3bfc:	ff ff ff 
    3bff:	8b 85 d0 f7 ff ff    	mov    -0x830(%rbp),%eax
    3c05:	83 c0 01             	add    $0x1,%eax
    3c08:	89 85 cc f7 ff ff    	mov    %eax,-0x834(%rbp)
    3c0e:	eb 07                	jmp    3c17 <fallbackSort+0x563>
    3c10:	83 85 cc f7 ff ff 01 	addl   $0x1,-0x834(%rbp)
    3c17:	8b 85 cc f7 ff ff    	mov    -0x834(%rbp),%eax
    3c1d:	c1 f8 05             	sar    $0x5,%eax
    3c20:	48 98                	cltq   
    3c22:	48 8d 14 85 00 00 00 	lea    0x0(,%rax,4),%rdx
    3c29:	00 
    3c2a:	48 8b 85 a8 f7 ff ff 	mov    -0x858(%rbp),%rax
    3c31:	48 01 d0             	add    %rdx,%rax
    3c34:	8b 10                	mov    (%rax),%edx
    3c36:	8b 85 cc f7 ff ff    	mov    -0x834(%rbp),%eax
    3c3c:	83 e0 1f             	and    $0x1f,%eax
    3c3f:	be 01 00 00 00       	mov    $0x1,%esi
    3c44:	89 c1                	mov    %eax,%ecx
    3c46:	d3 e6                	shl    %cl,%esi
    3c48:	89 f0                	mov    %esi,%eax
    3c4a:	21 d0                	and    %edx,%eax
    3c4c:	85 c0                	test   %eax,%eax
    3c4e:	74 0d                	je     3c5d <fallbackSort+0x5a9>
    3c50:	8b 85 cc f7 ff ff    	mov    -0x834(%rbp),%eax
    3c56:	83 e0 1f             	and    $0x1f,%eax
    3c59:	85 c0                	test   %eax,%eax
    3c5b:	75 b3                	jne    3c10 <fallbackSort+0x55c>
    3c5d:	8b 85 cc f7 ff ff    	mov    -0x834(%rbp),%eax
    3c63:	c1 f8 05             	sar    $0x5,%eax
    3c66:	48 98                	cltq   
    3c68:	48 8d 14 85 00 00 00 	lea    0x0(,%rax,4),%rdx
    3c6f:	00 
    3c70:	48 8b 85 a8 f7 ff ff 	mov    -0x858(%rbp),%rax
    3c77:	48 01 d0             	add    %rdx,%rax
    3c7a:	8b 10                	mov    (%rax),%edx
    3c7c:	8b 85 cc f7 ff ff    	mov    -0x834(%rbp),%eax
    3c82:	83 e0 1f             	and    $0x1f,%eax
    3c85:	be 01 00 00 00       	mov    $0x1,%esi
    3c8a:	89 c1                	mov    %eax,%ecx
    3c8c:	d3 e6                	shl    %cl,%esi
    3c8e:	89 f0                	mov    %esi,%eax
    3c90:	21 d0                	and    %edx,%eax
    3c92:	85 c0                	test   %eax,%eax
    3c94:	74 6f                	je     3d05 <fallbackSort+0x651>
    3c96:	eb 07                	jmp    3c9f <fallbackSort+0x5eb>
    3c98:	83 85 cc f7 ff ff 20 	addl   $0x20,-0x834(%rbp)
    3c9f:	8b 85 cc f7 ff ff    	mov    -0x834(%rbp),%eax
    3ca5:	c1 f8 05             	sar    $0x5,%eax
    3ca8:	48 98                	cltq   
    3caa:	48 8d 14 85 00 00 00 	lea    0x0(,%rax,4),%rdx
    3cb1:	00 
    3cb2:	48 8b 85 a8 f7 ff ff 	mov    -0x858(%rbp),%rax
    3cb9:	48 01 d0             	add    %rdx,%rax
    3cbc:	8b 00                	mov    (%rax),%eax
    3cbe:	83 f8 ff             	cmp    $0xffffffff,%eax
    3cc1:	74 d5                	je     3c98 <fallbackSort+0x5e4>
    3cc3:	eb 07                	jmp    3ccc <fallbackSort+0x618>
    3cc5:	83 85 cc f7 ff ff 01 	addl   $0x1,-0x834(%rbp)
    3ccc:	8b 85 cc f7 ff ff    	mov    -0x834(%rbp),%eax
    3cd2:	c1 f8 05             	sar    $0x5,%eax
    3cd5:	48 98                	cltq   
    3cd7:	48 8d 14 85 00 00 00 	lea    0x0(,%rax,4),%rdx
    3cde:	00 
    3cdf:	48 8b 85 a8 f7 ff ff 	mov    -0x858(%rbp),%rax
    3ce6:	48 01 d0             	add    %rdx,%rax
    3ce9:	8b 10                	mov    (%rax),%edx
    3ceb:	8b 85 cc f7 ff ff    	mov    -0x834(%rbp),%eax
    3cf1:	83 e0 1f             	and    $0x1f,%eax
    3cf4:	be 01 00 00 00       	mov    $0x1,%esi
    3cf9:	89 c1                	mov    %eax,%ecx
    3cfb:	d3 e6                	shl    %cl,%esi
    3cfd:	89 f0                	mov    %esi,%eax
    3cff:	21 d0                	and    %edx,%eax
    3d01:	85 c0                	test   %eax,%eax
    3d03:	75 c0                	jne    3cc5 <fallbackSort+0x611>
    3d05:	8b 85 cc f7 ff ff    	mov    -0x834(%rbp),%eax
    3d0b:	83 e8 01             	sub    $0x1,%eax
    3d0e:	89 85 e0 f7 ff ff    	mov    %eax,-0x820(%rbp)
    3d14:	8b 85 e0 f7 ff ff    	mov    -0x820(%rbp),%eax
    3d1a:	3b 85 a4 f7 ff ff    	cmp    -0x85c(%rbp),%eax
    3d20:	0f 8d 41 02 00 00    	jge    3f67 <fallbackSort+0x8b3>
    3d26:	eb 07                	jmp    3d2f <fallbackSort+0x67b>
    3d28:	83 85 cc f7 ff ff 01 	addl   $0x1,-0x834(%rbp)
    3d2f:	8b 85 cc f7 ff ff    	mov    -0x834(%rbp),%eax
    3d35:	c1 f8 05             	sar    $0x5,%eax
    3d38:	48 98                	cltq   
    3d3a:	48 8d 14 85 00 00 00 	lea    0x0(,%rax,4),%rdx
    3d41:	00 
    3d42:	48 8b 85 a8 f7 ff ff 	mov    -0x858(%rbp),%rax
    3d49:	48 01 d0             	add    %rdx,%rax
    3d4c:	8b 10                	mov    (%rax),%edx
    3d4e:	8b 85 cc f7 ff ff    	mov    -0x834(%rbp),%eax
    3d54:	83 e0 1f             	and    $0x1f,%eax
    3d57:	be 01 00 00 00       	mov    $0x1,%esi
    3d5c:	89 c1                	mov    %eax,%ecx
    3d5e:	d3 e6                	shl    %cl,%esi
    3d60:	89 f0                	mov    %esi,%eax
    3d62:	21 d0                	and    %edx,%eax
    3d64:	85 c0                	test   %eax,%eax
    3d66:	75 0d                	jne    3d75 <fallbackSort+0x6c1>
    3d68:	8b 85 cc f7 ff ff    	mov    -0x834(%rbp),%eax
    3d6e:	83 e0 1f             	and    $0x1f,%eax
    3d71:	85 c0                	test   %eax,%eax
    3d73:	75 b3                	jne    3d28 <fallbackSort+0x674>
    3d75:	8b 85 cc f7 ff ff    	mov    -0x834(%rbp),%eax
    3d7b:	c1 f8 05             	sar    $0x5,%eax
    3d7e:	48 98                	cltq   
    3d80:	48 8d 14 85 00 00 00 	lea    0x0(,%rax,4),%rdx
    3d87:	00 
    3d88:	48 8b 85 a8 f7 ff ff 	mov    -0x858(%rbp),%rax
    3d8f:	48 01 d0             	add    %rdx,%rax
    3d92:	8b 10                	mov    (%rax),%edx
    3d94:	8b 85 cc f7 ff ff    	mov    -0x834(%rbp),%eax
    3d9a:	83 e0 1f             	and    $0x1f,%eax
    3d9d:	be 01 00 00 00       	mov    $0x1,%esi
    3da2:	89 c1                	mov    %eax,%ecx
    3da4:	d3 e6                	shl    %cl,%esi
    3da6:	89 f0                	mov    %esi,%eax
    3da8:	21 d0                	and    %edx,%eax
    3daa:	85 c0                	test   %eax,%eax
    3dac:	75 6e                	jne    3e1c <fallbackSort+0x768>
    3dae:	eb 07                	jmp    3db7 <fallbackSort+0x703>
    3db0:	83 85 cc f7 ff ff 20 	addl   $0x20,-0x834(%rbp)
    3db7:	8b 85 cc f7 ff ff    	mov    -0x834(%rbp),%eax
    3dbd:	c1 f8 05             	sar    $0x5,%eax
    3dc0:	48 98                	cltq   
    3dc2:	48 8d 14 85 00 00 00 	lea    0x0(,%rax,4),%rdx
    3dc9:	00 
    3dca:	48 8b 85 a8 f7 ff ff 	mov    -0x858(%rbp),%rax
    3dd1:	48 01 d0             	add    %rdx,%rax
    3dd4:	8b 00                	mov    (%rax),%eax
    3dd6:	85 c0                	test   %eax,%eax
    3dd8:	74 d6                	je     3db0 <fallbackSort+0x6fc>
    3dda:	eb 07                	jmp    3de3 <fallbackSort+0x72f>
    3ddc:	83 85 cc f7 ff ff 01 	addl   $0x1,-0x834(%rbp)
    3de3:	8b 85 cc f7 ff ff    	mov    -0x834(%rbp),%eax
    3de9:	c1 f8 05             	sar    $0x5,%eax
    3dec:	48 98                	cltq   
    3dee:	48 8d 14 85 00 00 00 	lea    0x0(,%rax,4),%rdx
    3df5:	00 
    3df6:	48 8b 85 a8 f7 ff ff 	mov    -0x858(%rbp),%rax
    3dfd:	48 01 d0             	add    %rdx,%rax
    3e00:	8b 10                	mov    (%rax),%edx
    3e02:	8b 85 cc f7 ff ff    	mov    -0x834(%rbp),%eax
    3e08:	83 e0 1f             	and    $0x1f,%eax
    3e0b:	be 01 00 00 00       	mov    $0x1,%esi
    3e10:	89 c1                	mov    %eax,%ecx
    3e12:	d3 e6                	shl    %cl,%esi
    3e14:	89 f0                	mov    %esi,%eax
    3e16:	21 d0                	and    %edx,%eax
    3e18:	85 c0                	test   %eax,%eax
    3e1a:	74 c0                	je     3ddc <fallbackSort+0x728>
    3e1c:	8b 85 cc f7 ff ff    	mov    -0x834(%rbp),%eax
    3e22:	83 e8 01             	sub    $0x1,%eax
    3e25:	89 85 d0 f7 ff ff    	mov    %eax,-0x830(%rbp)
    3e2b:	8b 85 d0 f7 ff ff    	mov    -0x830(%rbp),%eax
    3e31:	3b 85 a4 f7 ff ff    	cmp    -0x85c(%rbp),%eax
    3e37:	0f 8d 2d 01 00 00    	jge    3f6a <fallbackSort+0x8b6>
    3e3d:	8b 85 d0 f7 ff ff    	mov    -0x830(%rbp),%eax
    3e43:	3b 85 e0 f7 ff ff    	cmp    -0x820(%rbp),%eax
    3e49:	0f 8e b0 fd ff ff    	jle    3bff <fallbackSort+0x54b>
    3e4f:	8b 85 d0 f7 ff ff    	mov    -0x830(%rbp),%eax
    3e55:	2b 85 e0 f7 ff ff    	sub    -0x820(%rbp),%eax
    3e5b:	83 c0 01             	add    $0x1,%eax
    3e5e:	01 85 d8 f7 ff ff    	add    %eax,-0x828(%rbp)
    3e64:	8b 8d d0 f7 ff ff    	mov    -0x830(%rbp),%ecx
    3e6a:	8b 95 e0 f7 ff ff    	mov    -0x820(%rbp),%edx
    3e70:	48 8b b5 b0 f7 ff ff 	mov    -0x850(%rbp),%rsi
    3e77:	48 8b 85 b8 f7 ff ff 	mov    -0x848(%rbp),%rax
    3e7e:	48 89 c7             	mov    %rax,%rdi
    3e81:	e8 07 f0 ff ff       	call   2e8d <fallbackQSort3>
    3e86:	c7 85 d4 f7 ff ff ff 	movl   $0xffffffff,-0x82c(%rbp)
    3e8d:	ff ff ff 
    3e90:	8b 85 e0 f7 ff ff    	mov    -0x820(%rbp),%eax
    3e96:	89 85 c4 f7 ff ff    	mov    %eax,-0x83c(%rbp)
    3e9c:	e9 af 00 00 00       	jmp    3f50 <fallbackSort+0x89c>
    3ea1:	8b 85 c4 f7 ff ff    	mov    -0x83c(%rbp),%eax
    3ea7:	48 98                	cltq   
    3ea9:	48 8d 14 85 00 00 00 	lea    0x0(,%rax,4),%rdx
    3eb0:	00 
    3eb1:	48 8b 85 b8 f7 ff ff 	mov    -0x848(%rbp),%rax
    3eb8:	48 01 d0             	add    %rdx,%rax
    3ebb:	8b 00                	mov    (%rax),%eax
    3ebd:	89 c0                	mov    %eax,%eax
    3ebf:	48 8d 14 85 00 00 00 	lea    0x0(,%rax,4),%rdx
    3ec6:	00 
    3ec7:	48 8b 85 b0 f7 ff ff 	mov    -0x850(%rbp),%rax
    3ece:	48 01 d0             	add    %rdx,%rax
    3ed1:	8b 00                	mov    (%rax),%eax
    3ed3:	89 85 e4 f7 ff ff    	mov    %eax,-0x81c(%rbp)
    3ed9:	8b 85 d4 f7 ff ff    	mov    -0x82c(%rbp),%eax
    3edf:	3b 85 e4 f7 ff ff    	cmp    -0x81c(%rbp),%eax
    3ee5:	74 62                	je     3f49 <fallbackSort+0x895>
    3ee7:	8b 85 c4 f7 ff ff    	mov    -0x83c(%rbp),%eax
    3eed:	c1 f8 05             	sar    $0x5,%eax
    3ef0:	48 98                	cltq   
    3ef2:	48 8d 14 85 00 00 00 	lea    0x0(,%rax,4),%rdx
    3ef9:	00 
    3efa:	48 8b 85 a8 f7 ff ff 	mov    -0x858(%rbp),%rax
    3f01:	48 01 d0             	add    %rdx,%rax
    3f04:	8b 10                	mov    (%rax),%edx
    3f06:	8b 85 c4 f7 ff ff    	mov    -0x83c(%rbp),%eax
    3f0c:	83 e0 1f             	and    $0x1f,%eax
    3f0f:	be 01 00 00 00       	mov    $0x1,%esi
    3f14:	89 c1                	mov    %eax,%ecx
    3f16:	d3 e6                	shl    %cl,%esi
    3f18:	89 f0                	mov    %esi,%eax
    3f1a:	89 c6                	mov    %eax,%esi
    3f1c:	8b 85 c4 f7 ff ff    	mov    -0x83c(%rbp),%eax
    3f22:	c1 f8 05             	sar    $0x5,%eax
    3f25:	48 98                	cltq   
    3f27:	48 8d 0c 85 00 00 00 	lea    0x0(,%rax,4),%rcx
    3f2e:	00 
    3f2f:	48 8b 85 a8 f7 ff ff 	mov    -0x858(%rbp),%rax
    3f36:	48 01 c8             	add    %rcx,%rax
    3f39:	09 f2                	or     %esi,%edx
    3f3b:	89 10                	mov    %edx,(%rax)
    3f3d:	8b 85 e4 f7 ff ff    	mov    -0x81c(%rbp),%eax
    3f43:	89 85 d4 f7 ff ff    	mov    %eax,-0x82c(%rbp)
    3f49:	83 85 c4 f7 ff ff 01 	addl   $0x1,-0x83c(%rbp)
    3f50:	8b 85 c4 f7 ff ff    	mov    -0x83c(%rbp),%eax
    3f56:	3b 85 d0 f7 ff ff    	cmp    -0x830(%rbp),%eax
    3f5c:	0f 8e 3f ff ff ff    	jle    3ea1 <fallbackSort+0x7ed>
    3f62:	e9 98 fc ff ff       	jmp    3bff <fallbackSort+0x54b>
    3f67:	90                   	nop
    3f68:	eb 01                	jmp    3f6b <fallbackSort+0x8b7>
    3f6a:	90                   	nop
    3f6b:	83 bd a0 f7 ff ff 03 	cmpl   $0x3,-0x860(%rbp)
    3f72:	7e 24                	jle    3f98 <fallbackSort+0x8e4>
    3f74:	48 8b 05 65 9d 01 00 	mov    0x19d65(%rip),%rax        # 1dce0 <stderr@GLIBC_2.2.5>
    3f7b:	8b 95 d8 f7 ff ff    	mov    -0x828(%rbp),%edx
    3f81:	48 8d 0d 9b 54 01 00 	lea    0x1549b(%rip),%rcx        # 19423 <_IO_stdin_used+0x423>
    3f88:	48 89 ce             	mov    %rcx,%rsi
    3f8b:	48 89 c7             	mov    %rax,%rdi
    3f8e:	b8 00 00 00 00       	mov    $0x0,%eax
    3f93:	e8 98 d2 ff ff       	call   1230 <fprintf@plt>
    3f98:	d1 a5 c0 f7 ff ff    	shll   -0x840(%rbp)
    3f9e:	8b 85 c0 f7 ff ff    	mov    -0x840(%rbp),%eax
    3fa4:	3b 85 a4 f7 ff ff    	cmp    -0x85c(%rbp),%eax
    3faa:	7f 0e                	jg     3fba <fallbackSort+0x906>
    3fac:	83 bd d8 f7 ff ff 00 	cmpl   $0x0,-0x828(%rbp)
    3fb3:	74 05                	je     3fba <fallbackSort+0x906>
    3fb5:	e9 2c fb ff ff       	jmp    3ae6 <fallbackSort+0x432>
    3fba:	83 bd a0 f7 ff ff 03 	cmpl   $0x3,-0x860(%rbp)
    3fc1:	7e 23                	jle    3fe6 <fallbackSort+0x932>
    3fc3:	48 8b 05 16 9d 01 00 	mov    0x19d16(%rip),%rax        # 1dce0 <stderr@GLIBC_2.2.5>
    3fca:	48 89 c1             	mov    %rax,%rcx
    3fcd:	ba 21 00 00 00       	mov    $0x21,%edx
    3fd2:	be 01 00 00 00       	mov    $0x1,%esi
    3fd7:	48 8d 05 62 54 01 00 	lea    0x15462(%rip),%rax        # 19440 <_IO_stdin_used+0x440>
    3fde:	48 89 c7             	mov    %rax,%rdi
    3fe1:	e8 ca d2 ff ff       	call   12b0 <fwrite@plt>
    3fe6:	c7 85 c8 f7 ff ff 00 	movl   $0x0,-0x838(%rbp)
    3fed:	00 00 00 
    3ff0:	c7 85 c4 f7 ff ff 00 	movl   $0x0,-0x83c(%rbp)
    3ff7:	00 00 00 
    3ffa:	eb 72                	jmp    406e <fallbackSort+0x9ba>
    3ffc:	83 85 c8 f7 ff ff 01 	addl   $0x1,-0x838(%rbp)
    4003:	8b 85 c8 f7 ff ff    	mov    -0x838(%rbp),%eax
    4009:	48 98                	cltq   
    400b:	8b 84 85 f0 f7 ff ff 	mov    -0x810(%rbp,%rax,4),%eax
    4012:	85 c0                	test   %eax,%eax
    4014:	74 e6                	je     3ffc <fallbackSort+0x948>
    4016:	8b 85 c8 f7 ff ff    	mov    -0x838(%rbp),%eax
    401c:	48 98                	cltq   
    401e:	8b 84 85 f0 f7 ff ff 	mov    -0x810(%rbp,%rax,4),%eax
    4025:	8d 50 ff             	lea    -0x1(%rax),%edx
    4028:	8b 85 c8 f7 ff ff    	mov    -0x838(%rbp),%eax
    402e:	48 98                	cltq   
    4030:	89 94 85 f0 f7 ff ff 	mov    %edx,-0x810(%rbp,%rax,4)
    4037:	8b 85 c4 f7 ff ff    	mov    -0x83c(%rbp),%eax
    403d:	48 98                	cltq   
    403f:	48 8d 14 85 00 00 00 	lea    0x0(,%rax,4),%rdx
    4046:	00 
    4047:	48 8b 85 b8 f7 ff ff 	mov    -0x848(%rbp),%rax
    404e:	48 01 d0             	add    %rdx,%rax
    4051:	8b 00                	mov    (%rax),%eax
    4053:	89 c2                	mov    %eax,%edx
    4055:	48 8b 85 e8 f7 ff ff 	mov    -0x818(%rbp),%rax
    405c:	48 01 d0             	add    %rdx,%rax
    405f:	8b 95 c8 f7 ff ff    	mov    -0x838(%rbp),%edx
    4065:	88 10                	mov    %dl,(%rax)
    4067:	83 85 c4 f7 ff ff 01 	addl   $0x1,-0x83c(%rbp)
    406e:	8b 85 c4 f7 ff ff    	mov    -0x83c(%rbp),%eax
    4074:	3b 85 a4 f7 ff ff    	cmp    -0x85c(%rbp),%eax
    407a:	7c 87                	jl     4003 <fallbackSort+0x94f>
    407c:	81 bd c8 f7 ff ff ff 	cmpl   $0xff,-0x838(%rbp)
    4083:	00 00 00 
    4086:	7e 0a                	jle    4092 <fallbackSort+0x9de>
    4088:	bf ed 03 00 00       	mov    $0x3ed,%edi
    408d:	e8 07 3c 00 00       	call   7c99 <BZ2_bz__AssertH__fail>
    4092:	90                   	nop
    4093:	48 8b 45 f8          	mov    -0x8(%rbp),%rax
    4097:	64 48 2b 04 25 28 00 	sub    %fs:0x28,%rax
    409e:	00 00 
    40a0:	74 05                	je     40a7 <fallbackSort+0x9f3>
    40a2:	e8 29 d1 ff ff       	call   11d0 <__stack_chk_fail@plt>
    40a7:	c9                   	leave  
    40a8:	c3                   	ret    

00000000000040a9 <mainGtU>:
    40a9:	f3 0f 1e fa          	endbr64 
    40ad:	55                   	push   %rbp
    40ae:	48 89 e5             	mov    %rsp,%rbp
    40b1:	89 7d ec             	mov    %edi,-0x14(%rbp)
    40b4:	89 75 e8             	mov    %esi,-0x18(%rbp)
    40b7:	48 89 55 e0          	mov    %rdx,-0x20(%rbp)
    40bb:	48 89 4d d8          	mov    %rcx,-0x28(%rbp)
    40bf:	44 89 45 d4          	mov    %r8d,-0x2c(%rbp)
    40c3:	4c 89 4d c8          	mov    %r9,-0x38(%rbp)
    40c7:	8b 55 ec             	mov    -0x14(%rbp),%edx
    40ca:	48 8b 45 e0          	mov    -0x20(%rbp),%rax
    40ce:	48 01 d0             	add    %rdx,%rax
    40d1:	0f b6 00             	movzbl (%rax),%eax
    40d4:	88 45 f6             	mov    %al,-0xa(%rbp)
    40d7:	8b 55 e8             	mov    -0x18(%rbp),%edx
    40da:	48 8b 45 e0          	mov    -0x20(%rbp),%rax
    40de:	48 01 d0             	add    %rdx,%rax
    40e1:	0f b6 00             	movzbl (%rax),%eax
    40e4:	88 45 f7             	mov    %al,-0x9(%rbp)
    40e7:	0f b6 45 f6          	movzbl -0xa(%rbp),%eax
    40eb:	3a 45 f7             	cmp    -0x9(%rbp),%al
    40ee:	74 0f                	je     40ff <mainGtU+0x56>
    40f0:	0f b6 45 f6          	movzbl -0xa(%rbp),%eax
    40f4:	3a 45 f7             	cmp    -0x9(%rbp),%al
    40f7:	0f 97 c0             	seta   %al
    40fa:	e9 2c 07 00 00       	jmp    482b <mainGtU+0x782>
    40ff:	83 45 ec 01          	addl   $0x1,-0x14(%rbp)
    4103:	83 45 e8 01          	addl   $0x1,-0x18(%rbp)
    4107:	8b 55 ec             	mov    -0x14(%rbp),%edx
    410a:	48 8b 45 e0          	mov    -0x20(%rbp),%rax
    410e:	48 01 d0             	add    %rdx,%rax
    4111:	0f b6 00             	movzbl (%rax),%eax
    4114:	88 45 f6             	mov    %al,-0xa(%rbp)
    4117:	8b 55 e8             	mov    -0x18(%rbp),%edx
    411a:	48 8b 45 e0          	mov    -0x20(%rbp),%rax
    411e:	48 01 d0             	add    %rdx,%rax
    4121:	0f b6 00             	movzbl (%rax),%eax
    4124:	88 45 f7             	mov    %al,-0x9(%rbp)
    4127:	0f b6 45 f6          	movzbl -0xa(%rbp),%eax
    412b:	3a 45 f7             	cmp    -0x9(%rbp),%al
    412e:	74 0f                	je     413f <mainGtU+0x96>
    4130:	0f b6 45 f6          	movzbl -0xa(%rbp),%eax
    4134:	3a 45 f7             	cmp    -0x9(%rbp),%al
    4137:	0f 97 c0             	seta   %al
    413a:	e9 ec 06 00 00       	jmp    482b <mainGtU+0x782>
    413f:	83 45 ec 01          	addl   $0x1,-0x14(%rbp)
    4143:	83 45 e8 01          	addl   $0x1,-0x18(%rbp)
    4147:	8b 55 ec             	mov    -0x14(%rbp),%edx
    414a:	48 8b 45 e0          	mov    -0x20(%rbp),%rax
    414e:	48 01 d0             	add    %rdx,%rax
    4151:	0f b6 00             	movzbl (%rax),%eax
    4154:	88 45 f6             	mov    %al,-0xa(%rbp)
    4157:	8b 55 e8             	mov    -0x18(%rbp),%edx
    415a:	48 8b 45 e0          	mov    -0x20(%rbp),%rax
    415e:	48 01 d0             	add    %rdx,%rax
    4161:	0f b6 00             	movzbl (%rax),%eax
    4164:	88 45 f7             	mov    %al,-0x9(%rbp)
    4167:	0f b6 45 f6          	movzbl -0xa(%rbp),%eax
    416b:	3a 45 f7             	cmp    -0x9(%rbp),%al
    416e:	74 0f                	je     417f <mainGtU+0xd6>
    4170:	0f b6 45 f6          	movzbl -0xa(%rbp),%eax
    4174:	3a 45 f7             	cmp    -0x9(%rbp),%al
    4177:	0f 97 c0             	seta   %al
    417a:	e9 ac 06 00 00       	jmp    482b <mainGtU+0x782>
    417f:	83 45 ec 01          	addl   $0x1,-0x14(%rbp)
    4183:	83 45 e8 01          	addl   $0x1,-0x18(%rbp)
    4187:	8b 55 ec             	mov    -0x14(%rbp),%edx
    418a:	48 8b 45 e0          	mov    -0x20(%rbp),%rax
    418e:	48 01 d0             	add    %rdx,%rax
    4191:	0f b6 00             	movzbl (%rax),%eax
    4194:	88 45 f6             	mov    %al,-0xa(%rbp)
    4197:	8b 55 e8             	mov    -0x18(%rbp),%edx
    419a:	48 8b 45 e0          	mov    -0x20(%rbp),%rax
    419e:	48 01 d0             	add    %rdx,%rax
    41a1:	0f b6 00             	movzbl (%rax),%eax
    41a4:	88 45 f7             	mov    %al,-0x9(%rbp)
    41a7:	0f b6 45 f6          	movzbl -0xa(%rbp),%eax
    41ab:	3a 45 f7             	cmp    -0x9(%rbp),%al
    41ae:	74 0f                	je     41bf <mainGtU+0x116>
    41b0:	0f b6 45 f6          	movzbl -0xa(%rbp),%eax
    41b4:	3a 45 f7             	cmp    -0x9(%rbp),%al
    41b7:	0f 97 c0             	seta   %al
    41ba:	e9 6c 06 00 00       	jmp    482b <mainGtU+0x782>
    41bf:	83 45 ec 01          	addl   $0x1,-0x14(%rbp)
    41c3:	83 45 e8 01          	addl   $0x1,-0x18(%rbp)
    41c7:	8b 55 ec             	mov    -0x14(%rbp),%edx
    41ca:	48 8b 45 e0          	mov    -0x20(%rbp),%rax
    41ce:	48 01 d0             	add    %rdx,%rax
    41d1:	0f b6 00             	movzbl (%rax),%eax
    41d4:	88 45 f6             	mov    %al,-0xa(%rbp)
    41d7:	8b 55 e8             	mov    -0x18(%rbp),%edx
    41da:	48 8b 45 e0          	mov    -0x20(%rbp),%rax
    41de:	48 01 d0             	add    %rdx,%rax
    41e1:	0f b6 00             	movzbl (%rax),%eax
    41e4:	88 45 f7             	mov    %al,-0x9(%rbp)
    41e7:	0f b6 45 f6          	movzbl -0xa(%rbp),%eax
    41eb:	3a 45 f7             	cmp    -0x9(%rbp),%al
    41ee:	74 0f                	je     41ff <mainGtU+0x156>
    41f0:	0f b6 45 f6          	movzbl -0xa(%rbp),%eax
    41f4:	3a 45 f7             	cmp    -0x9(%rbp),%al
    41f7:	0f 97 c0             	seta   %al
    41fa:	e9 2c 06 00 00       	jmp    482b <mainGtU+0x782>
    41ff:	83 45 ec 01          	addl   $0x1,-0x14(%rbp)
    4203:	83 45 e8 01          	addl   $0x1,-0x18(%rbp)
    4207:	8b 55 ec             	mov    -0x14(%rbp),%edx
    420a:	48 8b 45 e0          	mov    -0x20(%rbp),%rax
    420e:	48 01 d0             	add    %rdx,%rax
    4211:	0f b6 00             	movzbl (%rax),%eax
    4214:	88 45 f6             	mov    %al,-0xa(%rbp)
    4217:	8b 55 e8             	mov    -0x18(%rbp),%edx
    421a:	48 8b 45 e0          	mov    -0x20(%rbp),%rax
    421e:	48 01 d0             	add    %rdx,%rax
    4221:	0f b6 00             	movzbl (%rax),%eax
    4224:	88 45 f7             	mov    %al,-0x9(%rbp)
    4227:	0f b6 45 f6          	movzbl -0xa(%rbp),%eax
    422b:	3a 45 f7             	cmp    -0x9(%rbp),%al
    422e:	74 0f                	je     423f <mainGtU+0x196>
    4230:	0f b6 45 f6          	movzbl -0xa(%rbp),%eax
    4234:	3a 45 f7             	cmp    -0x9(%rbp),%al
    4237:	0f 97 c0             	seta   %al
    423a:	e9 ec 05 00 00       	jmp    482b <mainGtU+0x782>
    423f:	83 45 ec 01          	addl   $0x1,-0x14(%rbp)
    4243:	83 45 e8 01          	addl   $0x1,-0x18(%rbp)
    4247:	8b 55 ec             	mov    -0x14(%rbp),%edx
    424a:	48 8b 45 e0          	mov    -0x20(%rbp),%rax
    424e:	48 01 d0             	add    %rdx,%rax
    4251:	0f b6 00             	movzbl (%rax),%eax
    4254:	88 45 f6             	mov    %al,-0xa(%rbp)
    4257:	8b 55 e8             	mov    -0x18(%rbp),%edx
    425a:	48 8b 45 e0          	mov    -0x20(%rbp),%rax
    425e:	48 01 d0             	add    %rdx,%rax
    4261:	0f b6 00             	movzbl (%rax),%eax
    4264:	88 45 f7             	mov    %al,-0x9(%rbp)
    4267:	0f b6 45 f6          	movzbl -0xa(%rbp),%eax
    426b:	3a 45 f7             	cmp    -0x9(%rbp),%al
    426e:	74 0f                	je     427f <mainGtU+0x1d6>
    4270:	0f b6 45 f6          	movzbl -0xa(%rbp),%eax
    4274:	3a 45 f7             	cmp    -0x9(%rbp),%al
    4277:	0f 97 c0             	seta   %al
    427a:	e9 ac 05 00 00       	jmp    482b <mainGtU+0x782>
    427f:	83 45 ec 01          	addl   $0x1,-0x14(%rbp)
    4283:	83 45 e8 01          	addl   $0x1,-0x18(%rbp)
    4287:	8b 55 ec             	mov    -0x14(%rbp),%edx
    428a:	48 8b 45 e0          	mov    -0x20(%rbp),%rax
    428e:	48 01 d0             	add    %rdx,%rax
    4291:	0f b6 00             	movzbl (%rax),%eax
    4294:	88 45 f6             	mov    %al,-0xa(%rbp)
    4297:	8b 55 e8             	mov    -0x18(%rbp),%edx
    429a:	48 8b 45 e0          	mov    -0x20(%rbp),%rax
    429e:	48 01 d0             	add    %rdx,%rax
    42a1:	0f b6 00             	movzbl (%rax),%eax
    42a4:	88 45 f7             	mov    %al,-0x9(%rbp)
    42a7:	0f b6 45 f6          	movzbl -0xa(%rbp),%eax
    42ab:	3a 45 f7             	cmp    -0x9(%rbp),%al
    42ae:	74 0f                	je     42bf <mainGtU+0x216>
    42b0:	0f b6 45 f6          	movzbl -0xa(%rbp),%eax
    42b4:	3a 45 f7             	cmp    -0x9(%rbp),%al
    42b7:	0f 97 c0             	seta   %al
    42ba:	e9 6c 05 00 00       	jmp    482b <mainGtU+0x782>
    42bf:	83 45 ec 01          	addl   $0x1,-0x14(%rbp)
    42c3:	83 45 e8 01          	addl   $0x1,-0x18(%rbp)
    42c7:	8b 55 ec             	mov    -0x14(%rbp),%edx
    42ca:	48 8b 45 e0          	mov    -0x20(%rbp),%rax
    42ce:	48 01 d0             	add    %rdx,%rax
    42d1:	0f b6 00             	movzbl (%rax),%eax
    42d4:	88 45 f6             	mov    %al,-0xa(%rbp)
    42d7:	8b 55 e8             	mov    -0x18(%rbp),%edx
    42da:	48 8b 45 e0          	mov    -0x20(%rbp),%rax
    42de:	48 01 d0             	add    %rdx,%rax
    42e1:	0f b6 00             	movzbl (%rax),%eax
    42e4:	88 45 f7             	mov    %al,-0x9(%rbp)
    42e7:	0f b6 45 f6          	movzbl -0xa(%rbp),%eax
    42eb:	3a 45 f7             	cmp    -0x9(%rbp),%al
    42ee:	74 0f                	je     42ff <mainGtU+0x256>
    42f0:	0f b6 45 f6          	movzbl -0xa(%rbp),%eax
    42f4:	3a 45 f7             	cmp    -0x9(%rbp),%al
    42f7:	0f 97 c0             	seta   %al
    42fa:	e9 2c 05 00 00       	jmp    482b <mainGtU+0x782>
    42ff:	83 45 ec 01          	addl   $0x1,-0x14(%rbp)
    4303:	83 45 e8 01          	addl   $0x1,-0x18(%rbp)
    4307:	8b 55 ec             	mov    -0x14(%rbp),%edx
    430a:	48 8b 45 e0          	mov    -0x20(%rbp),%rax
    430e:	48 01 d0             	add    %rdx,%rax
    4311:	0f b6 00             	movzbl (%rax),%eax
    4314:	88 45 f6             	mov    %al,-0xa(%rbp)
    4317:	8b 55 e8             	mov    -0x18(%rbp),%edx
    431a:	48 8b 45 e0          	mov    -0x20(%rbp),%rax
    431e:	48 01 d0             	add    %rdx,%rax
    4321:	0f b6 00             	movzbl (%rax),%eax
    4324:	88 45 f7             	mov    %al,-0x9(%rbp)
    4327:	0f b6 45 f6          	movzbl -0xa(%rbp),%eax
    432b:	3a 45 f7             	cmp    -0x9(%rbp),%al
    432e:	74 0f                	je     433f <mainGtU+0x296>
    4330:	0f b6 45 f6          	movzbl -0xa(%rbp),%eax
    4334:	3a 45 f7             	cmp    -0x9(%rbp),%al
    4337:	0f 97 c0             	seta   %al
    433a:	e9 ec 04 00 00       	jmp    482b <mainGtU+0x782>
    433f:	83 45 ec 01          	addl   $0x1,-0x14(%rbp)
    4343:	83 45 e8 01          	addl   $0x1,-0x18(%rbp)
    4347:	8b 55 ec             	mov    -0x14(%rbp),%edx
    434a:	48 8b 45 e0          	mov    -0x20(%rbp),%rax
    434e:	48 01 d0             	add    %rdx,%rax
    4351:	0f b6 00             	movzbl (%rax),%eax
    4354:	88 45 f6             	mov    %al,-0xa(%rbp)
    4357:	8b 55 e8             	mov    -0x18(%rbp),%edx
    435a:	48 8b 45 e0          	mov    -0x20(%rbp),%rax
    435e:	48 01 d0             	add    %rdx,%rax
    4361:	0f b6 00             	movzbl (%rax),%eax
    4364:	88 45 f7             	mov    %al,-0x9(%rbp)
    4367:	0f b6 45 f6          	movzbl -0xa(%rbp),%eax
    436b:	3a 45 f7             	cmp    -0x9(%rbp),%al
    436e:	74 0f                	je     437f <mainGtU+0x2d6>
    4370:	0f b6 45 f6          	movzbl -0xa(%rbp),%eax
    4374:	3a 45 f7             	cmp    -0x9(%rbp),%al
    4377:	0f 97 c0             	seta   %al
    437a:	e9 ac 04 00 00       	jmp    482b <mainGtU+0x782>
    437f:	83 45 ec 01          	addl   $0x1,-0x14(%rbp)
    4383:	83 45 e8 01          	addl   $0x1,-0x18(%rbp)
    4387:	8b 55 ec             	mov    -0x14(%rbp),%edx
    438a:	48 8b 45 e0          	mov    -0x20(%rbp),%rax
    438e:	48 01 d0             	add    %rdx,%rax
    4391:	0f b6 00             	movzbl (%rax),%eax
    4394:	88 45 f6             	mov    %al,-0xa(%rbp)
    4397:	8b 55 e8             	mov    -0x18(%rbp),%edx
    439a:	48 8b 45 e0          	mov    -0x20(%rbp),%rax
    439e:	48 01 d0             	add    %rdx,%rax
    43a1:	0f b6 00             	movzbl (%rax),%eax
    43a4:	88 45 f7             	mov    %al,-0x9(%rbp)
    43a7:	0f b6 45 f6          	movzbl -0xa(%rbp),%eax
    43ab:	3a 45 f7             	cmp    -0x9(%rbp),%al
    43ae:	74 0f                	je     43bf <mainGtU+0x316>
    43b0:	0f b6 45 f6          	movzbl -0xa(%rbp),%eax
    43b4:	3a 45 f7             	cmp    -0x9(%rbp),%al
    43b7:	0f 97 c0             	seta   %al
    43ba:	e9 6c 04 00 00       	jmp    482b <mainGtU+0x782>
    43bf:	83 45 ec 01          	addl   $0x1,-0x14(%rbp)
    43c3:	83 45 e8 01          	addl   $0x1,-0x18(%rbp)
    43c7:	8b 45 d4             	mov    -0x2c(%rbp),%eax
    43ca:	83 c0 08             	add    $0x8,%eax
    43cd:	89 45 fc             	mov    %eax,-0x4(%rbp)
    43d0:	8b 55 ec             	mov    -0x14(%rbp),%edx
    43d3:	48 8b 45 e0          	mov    -0x20(%rbp),%rax
    43d7:	48 01 d0             	add    %rdx,%rax
    43da:	0f b6 00             	movzbl (%rax),%eax
    43dd:	88 45 f6             	mov    %al,-0xa(%rbp)
    43e0:	8b 55 e8             	mov    -0x18(%rbp),%edx
    43e3:	48 8b 45 e0          	mov    -0x20(%rbp),%rax
    43e7:	48 01 d0             	add    %rdx,%rax
    43ea:	0f b6 00             	movzbl (%rax),%eax
    43ed:	88 45 f7             	mov    %al,-0x9(%rbp)
    43f0:	0f b6 45 f6          	movzbl -0xa(%rbp),%eax
    43f4:	3a 45 f7             	cmp    -0x9(%rbp),%al
    43f7:	74 0f                	je     4408 <mainGtU+0x35f>
    43f9:	0f b6 45 f6          	movzbl -0xa(%rbp),%eax
    43fd:	3a 45 f7             	cmp    -0x9(%rbp),%al
    4400:	0f 97 c0             	seta   %al
    4403:	e9 23 04 00 00       	jmp    482b <mainGtU+0x782>
    4408:	8b 45 ec             	mov    -0x14(%rbp),%eax
    440b:	48 8d 14 00          	lea    (%rax,%rax,1),%rdx
    440f:	48 8b 45 d8          	mov    -0x28(%rbp),%rax
    4413:	48 01 d0             	add    %rdx,%rax
    4416:	0f b7 00             	movzwl (%rax),%eax
    4419:	66 89 45 f8          	mov    %ax,-0x8(%rbp)
    441d:	8b 45 e8             	mov    -0x18(%rbp),%eax
    4420:	48 8d 14 00          	lea    (%rax,%rax,1),%rdx
    4424:	48 8b 45 d8          	mov    -0x28(%rbp),%rax
    4428:	48 01 d0             	add    %rdx,%rax
    442b:	0f b7 00             	movzwl (%rax),%eax
    442e:	66 89 45 fa          	mov    %ax,-0x6(%rbp)
    4432:	0f b7 45 f8          	movzwl -0x8(%rbp),%eax
    4436:	66 3b 45 fa          	cmp    -0x6(%rbp),%ax
    443a:	74 10                	je     444c <mainGtU+0x3a3>
    443c:	0f b7 45 f8          	movzwl -0x8(%rbp),%eax
    4440:	66 3b 45 fa          	cmp    -0x6(%rbp),%ax
    4444:	0f 97 c0             	seta   %al
    4447:	e9 df 03 00 00       	jmp    482b <mainGtU+0x782>
    444c:	83 45 ec 01          	addl   $0x1,-0x14(%rbp)
    4450:	83 45 e8 01          	addl   $0x1,-0x18(%rbp)
    4454:	8b 55 ec             	mov    -0x14(%rbp),%edx
    4457:	48 8b 45 e0          	mov    -0x20(%rbp),%rax
    445b:	48 01 d0             	add    %rdx,%rax
    445e:	0f b6 00             	movzbl (%rax),%eax
    4461:	88 45 f6             	mov    %al,-0xa(%rbp)
    4464:	8b 55 e8             	mov    -0x18(%rbp),%edx
    4467:	48 8b 45 e0          	mov    -0x20(%rbp),%rax
    446b:	48 01 d0             	add    %rdx,%rax
    446e:	0f b6 00             	movzbl (%rax),%eax
    4471:	88 45 f7             	mov    %al,-0x9(%rbp)
    4474:	0f b6 45 f6          	movzbl -0xa(%rbp),%eax
    4478:	3a 45 f7             	cmp    -0x9(%rbp),%al
    447b:	74 0f                	je     448c <mainGtU+0x3e3>
    447d:	0f b6 45 f6          	movzbl -0xa(%rbp),%eax
    4481:	3a 45 f7             	cmp    -0x9(%rbp),%al
    4484:	0f 97 c0             	seta   %al
    4487:	e9 9f 03 00 00       	jmp    482b <mainGtU+0x782>
    448c:	8b 45 ec             	mov    -0x14(%rbp),%eax
    448f:	48 8d 14 00          	lea    (%rax,%rax,1),%rdx
    4493:	48 8b 45 d8          	mov    -0x28(%rbp),%rax
    4497:	48 01 d0             	add    %rdx,%rax
    449a:	0f b7 00             	movzwl (%rax),%eax
    449d:	66 89 45 f8          	mov    %ax,-0x8(%rbp)
    44a1:	8b 45 e8             	mov    -0x18(%rbp),%eax
    44a4:	48 8d 14 00          	lea    (%rax,%rax,1),%rdx
    44a8:	48 8b 45 d8          	mov    -0x28(%rbp),%rax
    44ac:	48 01 d0             	add    %rdx,%rax
    44af:	0f b7 00             	movzwl (%rax),%eax
    44b2:	66 89 45 fa          	mov    %ax,-0x6(%rbp)
    44b6:	0f b7 45 f8          	movzwl -0x8(%rbp),%eax
    44ba:	66 3b 45 fa          	cmp    -0x6(%rbp),%ax
    44be:	74 10                	je     44d0 <mainGtU+0x427>
    44c0:	0f b7 45 f8          	movzwl -0x8(%rbp),%eax
    44c4:	66 3b 45 fa          	cmp    -0x6(%rbp),%ax
    44c8:	0f 97 c0             	seta   %al
    44cb:	e9 5b 03 00 00       	jmp    482b <mainGtU+0x782>
    44d0:	83 45 ec 01          	addl   $0x1,-0x14(%rbp)
    44d4:	83 45 e8 01          	addl   $0x1,-0x18(%rbp)
    44d8:	8b 55 ec             	mov    -0x14(%rbp),%edx
    44db:	48 8b 45 e0          	mov    -0x20(%rbp),%rax
    44df:	48 01 d0             	add    %rdx,%rax
    44e2:	0f b6 00             	movzbl (%rax),%eax
    44e5:	88 45 f6             	mov    %al,-0xa(%rbp)
    44e8:	8b 55 e8             	mov    -0x18(%rbp),%edx
    44eb:	48 8b 45 e0          	mov    -0x20(%rbp),%rax
    44ef:	48 01 d0             	add    %rdx,%rax
    44f2:	0f b6 00             	movzbl (%rax),%eax
    44f5:	88 45 f7             	mov    %al,-0x9(%rbp)
    44f8:	0f b6 45 f6          	movzbl -0xa(%rbp),%eax
    44fc:	3a 45 f7             	cmp    -0x9(%rbp),%al
    44ff:	74 0f                	je     4510 <mainGtU+0x467>
    4501:	0f b6 45 f6          	movzbl -0xa(%rbp),%eax
    4505:	3a 45 f7             	cmp    -0x9(%rbp),%al
    4508:	0f 97 c0             	seta   %al
    450b:	e9 1b 03 00 00       	jmp    482b <mainGtU+0x782>
    4510:	8b 45 ec             	mov    -0x14(%rbp),%eax
    4513:	48 8d 14 00          	lea    (%rax,%rax,1),%rdx
    4517:	48 8b 45 d8          	mov    -0x28(%rbp),%rax
    451b:	48 01 d0             	add    %rdx,%rax
    451e:	0f b7 00             	movzwl (%rax),%eax
    4521:	66 89 45 f8          	mov    %ax,-0x8(%rbp)
    4525:	8b 45 e8             	mov    -0x18(%rbp),%eax
    4528:	48 8d 14 00          	lea    (%rax,%rax,1),%rdx
    452c:	48 8b 45 d8          	mov    -0x28(%rbp),%rax
    4530:	48 01 d0             	add    %rdx,%rax
    4533:	0f b7 00             	movzwl (%rax),%eax
    4536:	66 89 45 fa          	mov    %ax,-0x6(%rbp)
    453a:	0f b7 45 f8          	movzwl -0x8(%rbp),%eax
    453e:	66 3b 45 fa          	cmp    -0x6(%rbp),%ax
    4542:	74 10                	je     4554 <mainGtU+0x4ab>
    4544:	0f b7 45 f8          	movzwl -0x8(%rbp),%eax
    4548:	66 3b 45 fa          	cmp    -0x6(%rbp),%ax
    454c:	0f 97 c0             	seta   %al
    454f:	e9 d7 02 00 00       	jmp    482b <mainGtU+0x782>
    4554:	83 45 ec 01          	addl   $0x1,-0x14(%rbp)
    4558:	83 45 e8 01          	addl   $0x1,-0x18(%rbp)
    455c:	8b 55 ec             	mov    -0x14(%rbp),%edx
    455f:	48 8b 45 e0          	mov    -0x20(%rbp),%rax
    4563:	48 01 d0             	add    %rdx,%rax
    4566:	0f b6 00             	movzbl (%rax),%eax
    4569:	88 45 f6             	mov    %al,-0xa(%rbp)
    456c:	8b 55 e8             	mov    -0x18(%rbp),%edx
    456f:	48 8b 45 e0          	mov    -0x20(%rbp),%rax
    4573:	48 01 d0             	add    %rdx,%rax
    4576:	0f b6 00             	movzbl (%rax),%eax
    4579:	88 45 f7             	mov    %al,-0x9(%rbp)
    457c:	0f b6 45 f6          	movzbl -0xa(%rbp),%eax
    4580:	3a 45 f7             	cmp    -0x9(%rbp),%al
    4583:	74 0f                	je     4594 <mainGtU+0x4eb>
    4585:	0f b6 45 f6          	movzbl -0xa(%rbp),%eax
    4589:	3a 45 f7             	cmp    -0x9(%rbp),%al
    458c:	0f 97 c0             	seta   %al
    458f:	e9 97 02 00 00       	jmp    482b <mainGtU+0x782>
    4594:	8b 45 ec             	mov    -0x14(%rbp),%eax
    4597:	48 8d 14 00          	lea    (%rax,%rax,1),%rdx
    459b:	48 8b 45 d8          	mov    -0x28(%rbp),%rax
    459f:	48 01 d0             	add    %rdx,%rax
    45a2:	0f b7 00             	movzwl (%rax),%eax
    45a5:	66 89 45 f8          	mov    %ax,-0x8(%rbp)
    45a9:	8b 45 e8             	mov    -0x18(%rbp),%eax
    45ac:	48 8d 14 00          	lea    (%rax,%rax,1),%rdx
    45b0:	48 8b 45 d8          	mov    -0x28(%rbp),%rax
    45b4:	48 01 d0             	add    %rdx,%rax
    45b7:	0f b7 00             	movzwl (%rax),%eax
    45ba:	66 89 45 fa          	mov    %ax,-0x6(%rbp)
    45be:	0f b7 45 f8          	movzwl -0x8(%rbp),%eax
    45c2:	66 3b 45 fa          	cmp    -0x6(%rbp),%ax
    45c6:	74 10                	je     45d8 <mainGtU+0x52f>
    45c8:	0f b7 45 f8          	movzwl -0x8(%rbp),%eax
    45cc:	66 3b 45 fa          	cmp    -0x6(%rbp),%ax
    45d0:	0f 97 c0             	seta   %al
    45d3:	e9 53 02 00 00       	jmp    482b <mainGtU+0x782>
    45d8:	83 45 ec 01          	addl   $0x1,-0x14(%rbp)
    45dc:	83 45 e8 01          	addl   $0x1,-0x18(%rbp)
    45e0:	8b 55 ec             	mov    -0x14(%rbp),%edx
    45e3:	48 8b 45 e0          	mov    -0x20(%rbp),%rax
    45e7:	48 01 d0             	add    %rdx,%rax
    45ea:	0f b6 00             	movzbl (%rax),%eax
    45ed:	88 45 f6             	mov    %al,-0xa(%rbp)
    45f0:	8b 55 e8             	mov    -0x18(%rbp),%edx
    45f3:	48 8b 45 e0          	mov    -0x20(%rbp),%rax
    45f7:	48 01 d0             	add    %rdx,%rax
    45fa:	0f b6 00             	movzbl (%rax),%eax
    45fd:	88 45 f7             	mov    %al,-0x9(%rbp)
    4600:	0f b6 45 f6          	movzbl -0xa(%rbp),%eax
    4604:	3a 45 f7             	cmp    -0x9(%rbp),%al
    4607:	74 0f                	je     4618 <mainGtU+0x56f>
    4609:	0f b6 45 f6          	movzbl -0xa(%rbp),%eax
    460d:	3a 45 f7             	cmp    -0x9(%rbp),%al
    4610:	0f 97 c0             	seta   %al
    4613:	e9 13 02 00 00       	jmp    482b <mainGtU+0x782>
    4618:	8b 45 ec             	mov    -0x14(%rbp),%eax
    461b:	48 8d 14 00          	lea    (%rax,%rax,1),%rdx
    461f:	48 8b 45 d8          	mov    -0x28(%rbp),%rax
    4623:	48 01 d0             	add    %rdx,%rax
    4626:	0f b7 00             	movzwl (%rax),%eax
    4629:	66 89 45 f8          	mov    %ax,-0x8(%rbp)
    462d:	8b 45 e8             	mov    -0x18(%rbp),%eax
    4630:	48 8d 14 00          	lea    (%rax,%rax,1),%rdx
    4634:	48 8b 45 d8          	mov    -0x28(%rbp),%rax
    4638:	48 01 d0             	add    %rdx,%rax
    463b:	0f b7 00             	movzwl (%rax),%eax
    463e:	66 89 45 fa          	mov    %ax,-0x6(%rbp)
    4642:	0f b7 45 f8          	movzwl -0x8(%rbp),%eax
    4646:	66 3b 45 fa          	cmp    -0x6(%rbp),%ax
    464a:	74 10                	je     465c <mainGtU+0x5b3>
    464c:	0f b7 45 f8          	movzwl -0x8(%rbp),%eax
    4650:	66 3b 45 fa          	cmp    -0x6(%rbp),%ax
    4654:	0f 97 c0             	seta   %al
    4657:	e9 cf 01 00 00       	jmp    482b <mainGtU+0x782>
    465c:	83 45 ec 01          	addl   $0x1,-0x14(%rbp)
    4660:	83 45 e8 01          	addl   $0x1,-0x18(%rbp)
    4664:	8b 55 ec             	mov    -0x14(%rbp),%edx
    4667:	48 8b 45 e0          	mov    -0x20(%rbp),%rax
    466b:	48 01 d0             	add    %rdx,%rax
    466e:	0f b6 00             	movzbl (%rax),%eax
    4671:	88 45 f6             	mov    %al,-0xa(%rbp)
    4674:	8b 55 e8             	mov    -0x18(%rbp),%edx
    4677:	48 8b 45 e0          	mov    -0x20(%rbp),%rax
    467b:	48 01 d0             	add    %rdx,%rax
    467e:	0f b6 00             	movzbl (%rax),%eax
    4681:	88 45 f7             	mov    %al,-0x9(%rbp)
    4684:	0f b6 45 f6          	movzbl -0xa(%rbp),%eax
    4688:	3a 45 f7             	cmp    -0x9(%rbp),%al
    468b:	74 0f                	je     469c <mainGtU+0x5f3>
    468d:	0f b6 45 f6          	movzbl -0xa(%rbp),%eax
    4691:	3a 45 f7             	cmp    -0x9(%rbp),%al
    4694:	0f 97 c0             	seta   %al
    4697:	e9 8f 01 00 00       	jmp    482b <mainGtU+0x782>
    469c:	8b 45 ec             	mov    -0x14(%rbp),%eax
    469f:	48 8d 14 00          	lea    (%rax,%rax,1),%rdx
    46a3:	48 8b 45 d8          	mov    -0x28(%rbp),%rax
    46a7:	48 01 d0             	add    %rdx,%rax
    46aa:	0f b7 00             	movzwl (%rax),%eax
    46ad:	66 89 45 f8          	mov    %ax,-0x8(%rbp)
    46b1:	8b 45 e8             	mov    -0x18(%rbp),%eax
    46b4:	48 8d 14 00          	lea    (%rax,%rax,1),%rdx
    46b8:	48 8b 45 d8          	mov    -0x28(%rbp),%rax
    46bc:	48 01 d0             	add    %rdx,%rax
    46bf:	0f b7 00             	movzwl (%rax),%eax
    46c2:	66 89 45 fa          	mov    %ax,-0x6(%rbp)
    46c6:	0f b7 45 f8          	movzwl -0x8(%rbp),%eax
    46ca:	66 3b 45 fa          	cmp    -0x6(%rbp),%ax
    46ce:	74 10                	je     46e0 <mainGtU+0x637>
    46d0:	0f b7 45 f8          	movzwl -0x8(%rbp),%eax
    46d4:	66 3b 45 fa          	cmp    -0x6(%rbp),%ax
    46d8:	0f 97 c0             	seta   %al
    46db:	e9 4b 01 00 00       	jmp    482b <mainGtU+0x782>
    46e0:	83 45 ec 01          	addl   $0x1,-0x14(%rbp)
    46e4:	83 45 e8 01          	addl   $0x1,-0x18(%rbp)
    46e8:	8b 55 ec             	mov    -0x14(%rbp),%edx
    46eb:	48 8b 45 e0          	mov    -0x20(%rbp),%rax
    46ef:	48 01 d0             	add    %rdx,%rax
    46f2:	0f b6 00             	movzbl (%rax),%eax
    46f5:	88 45 f6             	mov    %al,-0xa(%rbp)
    46f8:	8b 55 e8             	mov    -0x18(%rbp),%edx
    46fb:	48 8b 45 e0          	mov    -0x20(%rbp),%rax
    46ff:	48 01 d0             	add    %rdx,%rax
    4702:	0f b6 00             	movzbl (%rax),%eax
    4705:	88 45 f7             	mov    %al,-0x9(%rbp)
    4708:	0f b6 45 f6          	movzbl -0xa(%rbp),%eax
    470c:	3a 45 f7             	cmp    -0x9(%rbp),%al
    470f:	74 0f                	je     4720 <mainGtU+0x677>
    4711:	0f b6 45 f6          	movzbl -0xa(%rbp),%eax
    4715:	3a 45 f7             	cmp    -0x9(%rbp),%al
    4718:	0f 97 c0             	seta   %al
    471b:	e9 0b 01 00 00       	jmp    482b <mainGtU+0x782>
    4720:	8b 45 ec             	mov    -0x14(%rbp),%eax
    4723:	48 8d 14 00          	lea    (%rax,%rax,1),%rdx
    4727:	48 8b 45 d8          	mov    -0x28(%rbp),%rax
    472b:	48 01 d0             	add    %rdx,%rax
    472e:	0f b7 00             	movzwl (%rax),%eax
    4731:	66 89 45 f8          	mov    %ax,-0x8(%rbp)
    4735:	8b 45 e8             	mov    -0x18(%rbp),%eax
    4738:	48 8d 14 00          	lea    (%rax,%rax,1),%rdx
    473c:	48 8b 45 d8          	mov    -0x28(%rbp),%rax
    4740:	48 01 d0             	add    %rdx,%rax
    4743:	0f b7 00             	movzwl (%rax),%eax
    4746:	66 89 45 fa          	mov    %ax,-0x6(%rbp)
    474a:	0f b7 45 f8          	movzwl -0x8(%rbp),%eax
    474e:	66 3b 45 fa          	cmp    -0x6(%rbp),%ax
    4752:	74 10                	je     4764 <mainGtU+0x6bb>
    4754:	0f b7 45 f8          	movzwl -0x8(%rbp),%eax
    4758:	66 3b 45 fa          	cmp    -0x6(%rbp),%ax
    475c:	0f 97 c0             	seta   %al
    475f:	e9 c7 00 00 00       	jmp    482b <mainGtU+0x782>
    4764:	83 45 ec 01          	addl   $0x1,-0x14(%rbp)
    4768:	83 45 e8 01          	addl   $0x1,-0x18(%rbp)
    476c:	8b 55 ec             	mov    -0x14(%rbp),%edx
    476f:	48 8b 45 e0          	mov    -0x20(%rbp),%rax
    4773:	48 01 d0             	add    %rdx,%rax
    4776:	0f b6 00             	movzbl (%rax),%eax
    4779:	88 45 f6             	mov    %al,-0xa(%rbp)
    477c:	8b 55 e8             	mov    -0x18(%rbp),%edx
    477f:	48 8b 45 e0          	mov    -0x20(%rbp),%rax
    4783:	48 01 d0             	add    %rdx,%rax
    4786:	0f b6 00             	movzbl (%rax),%eax
    4789:	88 45 f7             	mov    %al,-0x9(%rbp)
    478c:	0f b6 45 f6          	movzbl -0xa(%rbp),%eax
    4790:	3a 45 f7             	cmp    -0x9(%rbp),%al
    4793:	74 0f                	je     47a4 <mainGtU+0x6fb>
    4795:	0f b6 45 f6          	movzbl -0xa(%rbp),%eax
    4799:	3a 45 f7             	cmp    -0x9(%rbp),%al
    479c:	0f 97 c0             	seta   %al
    479f:	e9 87 00 00 00       	jmp    482b <mainGtU+0x782>
    47a4:	8b 45 ec             	mov    -0x14(%rbp),%eax
    47a7:	48 8d 14 00          	lea    (%rax,%rax,1),%rdx
    47ab:	48 8b 45 d8          	mov    -0x28(%rbp),%rax
    47af:	48 01 d0             	add    %rdx,%rax
    47b2:	0f b7 00             	movzwl (%rax),%eax
    47b5:	66 89 45 f8          	mov    %ax,-0x8(%rbp)
    47b9:	8b 45 e8             	mov    -0x18(%rbp),%eax
    47bc:	48 8d 14 00          	lea    (%rax,%rax,1),%rdx
    47c0:	48 8b 45 d8          	mov    -0x28(%rbp),%rax
    47c4:	48 01 d0             	add    %rdx,%rax
    47c7:	0f b7 00             	movzwl (%rax),%eax
    47ca:	66 89 45 fa          	mov    %ax,-0x6(%rbp)
    47ce:	0f b7 45 f8          	movzwl -0x8(%rbp),%eax
    47d2:	66 3b 45 fa          	cmp    -0x6(%rbp),%ax
    47d6:	74 0d                	je     47e5 <mainGtU+0x73c>
    47d8:	0f b7 45 f8          	movzwl -0x8(%rbp),%eax
    47dc:	66 3b 45 fa          	cmp    -0x6(%rbp),%ax
    47e0:	0f 97 c0             	seta   %al
    47e3:	eb 46                	jmp    482b <mainGtU+0x782>
    47e5:	83 45 ec 01          	addl   $0x1,-0x14(%rbp)
    47e9:	83 45 e8 01          	addl   $0x1,-0x18(%rbp)
    47ed:	8b 45 ec             	mov    -0x14(%rbp),%eax
    47f0:	3b 45 d4             	cmp    -0x2c(%rbp),%eax
    47f3:	72 06                	jb     47fb <mainGtU+0x752>
    47f5:	8b 45 d4             	mov    -0x2c(%rbp),%eax
    47f8:	29 45 ec             	sub    %eax,-0x14(%rbp)
    47fb:	8b 45 e8             	mov    -0x18(%rbp),%eax
    47fe:	3b 45 d4             	cmp    -0x2c(%rbp),%eax
    4801:	72 06                	jb     4809 <mainGtU+0x760>
    4803:	8b 45 d4             	mov    -0x2c(%rbp),%eax
    4806:	29 45 e8             	sub    %eax,-0x18(%rbp)
    4809:	83 6d fc 08          	subl   $0x8,-0x4(%rbp)
    480d:	48 8b 45 c8          	mov    -0x38(%rbp),%rax
    4811:	8b 00                	mov    (%rax),%eax
    4813:	8d 50 ff             	lea    -0x1(%rax),%edx
    4816:	48 8b 45 c8          	mov    -0x38(%rbp),%rax
    481a:	89 10                	mov    %edx,(%rax)
    481c:	83 7d fc 00          	cmpl   $0x0,-0x4(%rbp)
    4820:	0f 89 aa fb ff ff    	jns    43d0 <mainGtU+0x327>
    4826:	b8 00 00 00 00       	mov    $0x0,%eax
    482b:	5d                   	pop    %rbp
    482c:	c3                   	ret    

000000000000482d <mainSimpleSort>:
    482d:	f3 0f 1e fa          	endbr64 
    4831:	55                   	push   %rbp
    4832:	48 89 e5             	mov    %rsp,%rbp
    4835:	48 83 ec 48          	sub    $0x48,%rsp
    4839:	48 89 7d d8          	mov    %rdi,-0x28(%rbp)
    483d:	48 89 75 d0          	mov    %rsi,-0x30(%rbp)
    4841:	48 89 55 c8          	mov    %rdx,-0x38(%rbp)
    4845:	89 4d c4             	mov    %ecx,-0x3c(%rbp)
    4848:	44 89 45 c0          	mov    %r8d,-0x40(%rbp)
    484c:	44 89 4d bc          	mov    %r9d,-0x44(%rbp)
    4850:	8b 45 bc             	mov    -0x44(%rbp),%eax
    4853:	2b 45 c0             	sub    -0x40(%rbp),%eax
    4856:	83 c0 01             	add    $0x1,%eax
    4859:	89 45 f4             	mov    %eax,-0xc(%rbp)
    485c:	83 7d f4 01          	cmpl   $0x1,-0xc(%rbp)
    4860:	0f 8e 1d 03 00 00    	jle    4b83 <mainSimpleSort+0x356>
    4866:	c7 45 f0 00 00 00 00 	movl   $0x0,-0x10(%rbp)
    486d:	eb 04                	jmp    4873 <mainSimpleSort+0x46>
    486f:	83 45 f0 01          	addl   $0x1,-0x10(%rbp)
    4873:	8b 45 f0             	mov    -0x10(%rbp),%eax
    4876:	48 98                	cltq   
    4878:	48 8d 14 85 00 00 00 	lea    0x0(,%rax,4),%rdx
    487f:	00 
    4880:	48 8d 05 99 87 01 00 	lea    0x18799(%rip),%rax        # 1d020 <incs>
    4887:	8b 04 02             	mov    (%rdx,%rax,1),%eax
    488a:	39 45 f4             	cmp    %eax,-0xc(%rbp)
    488d:	7f e0                	jg     486f <mainSimpleSort+0x42>
    488f:	83 6d f0 01          	subl   $0x1,-0x10(%rbp)
    4893:	e9 df 02 00 00       	jmp    4b77 <mainSimpleSort+0x34a>
    4898:	8b 45 f0             	mov    -0x10(%rbp),%eax
    489b:	48 98                	cltq   
    489d:	48 8d 14 85 00 00 00 	lea    0x0(,%rax,4),%rdx
    48a4:	00 
    48a5:	48 8d 05 74 87 01 00 	lea    0x18774(%rip),%rax        # 1d020 <incs>
    48ac:	8b 04 02             	mov    (%rdx,%rax,1),%eax
    48af:	89 45 f8             	mov    %eax,-0x8(%rbp)
    48b2:	8b 55 c0             	mov    -0x40(%rbp),%edx
    48b5:	8b 45 f8             	mov    -0x8(%rbp),%eax
    48b8:	01 d0                	add    %edx,%eax
    48ba:	89 45 e8             	mov    %eax,-0x18(%rbp)
    48bd:	8b 45 e8             	mov    -0x18(%rbp),%eax
    48c0:	3b 45 bc             	cmp    -0x44(%rbp),%eax
    48c3:	0f 8f a3 02 00 00    	jg     4b6c <mainSimpleSort+0x33f>
    48c9:	8b 45 e8             	mov    -0x18(%rbp),%eax
    48cc:	48 98                	cltq   
    48ce:	48 8d 14 85 00 00 00 	lea    0x0(,%rax,4),%rdx
    48d5:	00 
    48d6:	48 8b 45 d8          	mov    -0x28(%rbp),%rax
    48da:	48 01 d0             	add    %rdx,%rax
    48dd:	8b 00                	mov    (%rax),%eax
    48df:	89 45 fc             	mov    %eax,-0x4(%rbp)
    48e2:	8b 45 e8             	mov    -0x18(%rbp),%eax
    48e5:	89 45 ec             	mov    %eax,-0x14(%rbp)
    48e8:	eb 43                	jmp    492d <mainSimpleSort+0x100>
    48ea:	8b 45 ec             	mov    -0x14(%rbp),%eax
    48ed:	2b 45 f8             	sub    -0x8(%rbp),%eax
    48f0:	48 98                	cltq   
    48f2:	48 8d 14 85 00 00 00 	lea    0x0(,%rax,4),%rdx
    48f9:	00 
    48fa:	48 8b 45 d8          	mov    -0x28(%rbp),%rax
    48fe:	48 01 d0             	add    %rdx,%rax
    4901:	8b 55 ec             	mov    -0x14(%rbp),%edx
    4904:	48 63 d2             	movslq %edx,%rdx
    4907:	48 8d 0c 95 00 00 00 	lea    0x0(,%rdx,4),%rcx
    490e:	00 
    490f:	48 8b 55 d8          	mov    -0x28(%rbp),%rdx
    4913:	48 01 ca             	add    %rcx,%rdx
    4916:	8b 00                	mov    (%rax),%eax
    4918:	89 02                	mov    %eax,(%rdx)
    491a:	8b 45 f8             	mov    -0x8(%rbp),%eax
    491d:	29 45 ec             	sub    %eax,-0x14(%rbp)
    4920:	8b 55 c0             	mov    -0x40(%rbp),%edx
    4923:	8b 45 f8             	mov    -0x8(%rbp),%eax
    4926:	01 d0                	add    %edx,%eax
    4928:	39 45 ec             	cmp    %eax,-0x14(%rbp)
    492b:	7c 52                	jl     497f <mainSimpleSort+0x152>
    492d:	8b 4d c4             	mov    -0x3c(%rbp),%ecx
    4930:	8b 55 10             	mov    0x10(%rbp),%edx
    4933:	8b 45 fc             	mov    -0x4(%rbp),%eax
    4936:	8d 34 02             	lea    (%rdx,%rax,1),%esi
    4939:	8b 45 ec             	mov    -0x14(%rbp),%eax
    493c:	2b 45 f8             	sub    -0x8(%rbp),%eax
    493f:	48 98                	cltq   
    4941:	48 8d 14 85 00 00 00 	lea    0x0(,%rax,4),%rdx
    4948:	00 
    4949:	48 8b 45 d8          	mov    -0x28(%rbp),%rax
    494d:	48 01 d0             	add    %rdx,%rax
    4950:	8b 10                	mov    (%rax),%edx
    4952:	8b 45 10             	mov    0x10(%rbp),%eax
    4955:	8d 3c 02             	lea    (%rdx,%rax,1),%edi
    4958:	4c 8b 45 18          	mov    0x18(%rbp),%r8
    495c:	48 8b 55 c8          	mov    -0x38(%rbp),%rdx
    4960:	48 8b 45 d0          	mov    -0x30(%rbp),%rax
    4964:	4d 89 c1             	mov    %r8,%r9
    4967:	41 89 c8             	mov    %ecx,%r8d
    496a:	48 89 d1             	mov    %rdx,%rcx
    496d:	48 89 c2             	mov    %rax,%rdx
    4970:	e8 34 f7 ff ff       	call   40a9 <mainGtU>
    4975:	84 c0                	test   %al,%al
    4977:	0f 85 6d ff ff ff    	jne    48ea <mainSimpleSort+0xbd>
    497d:	eb 01                	jmp    4980 <mainSimpleSort+0x153>
    497f:	90                   	nop
    4980:	8b 45 ec             	mov    -0x14(%rbp),%eax
    4983:	48 98                	cltq   
    4985:	48 8d 14 85 00 00 00 	lea    0x0(,%rax,4),%rdx
    498c:	00 
    498d:	48 8b 45 d8          	mov    -0x28(%rbp),%rax
    4991:	48 01 c2             	add    %rax,%rdx
    4994:	8b 45 fc             	mov    -0x4(%rbp),%eax
    4997:	89 02                	mov    %eax,(%rdx)
    4999:	83 45 e8 01          	addl   $0x1,-0x18(%rbp)
    499d:	8b 45 e8             	mov    -0x18(%rbp),%eax
    49a0:	3b 45 bc             	cmp    -0x44(%rbp),%eax
    49a3:	0f 8f c6 01 00 00    	jg     4b6f <mainSimpleSort+0x342>
    49a9:	8b 45 e8             	mov    -0x18(%rbp),%eax
    49ac:	48 98                	cltq   
    49ae:	48 8d 14 85 00 00 00 	lea    0x0(,%rax,4),%rdx
    49b5:	00 
    49b6:	48 8b 45 d8          	mov    -0x28(%rbp),%rax
    49ba:	48 01 d0             	add    %rdx,%rax
    49bd:	8b 00                	mov    (%rax),%eax
    49bf:	89 45 fc             	mov    %eax,-0x4(%rbp)
    49c2:	8b 45 e8             	mov    -0x18(%rbp),%eax
    49c5:	89 45 ec             	mov    %eax,-0x14(%rbp)
    49c8:	eb 43                	jmp    4a0d <mainSimpleSort+0x1e0>
    49ca:	8b 45 ec             	mov    -0x14(%rbp),%eax
    49cd:	2b 45 f8             	sub    -0x8(%rbp),%eax
    49d0:	48 98                	cltq   
    49d2:	48 8d 14 85 00 00 00 	lea    0x0(,%rax,4),%rdx
    49d9:	00 
    49da:	48 8b 45 d8          	mov    -0x28(%rbp),%rax
    49de:	48 01 d0             	add    %rdx,%rax
    49e1:	8b 55 ec             	mov    -0x14(%rbp),%edx
    49e4:	48 63 d2             	movslq %edx,%rdx
    49e7:	48 8d 0c 95 00 00 00 	lea    0x0(,%rdx,4),%rcx
    49ee:	00 
    49ef:	48 8b 55 d8          	mov    -0x28(%rbp),%rdx
    49f3:	48 01 ca             	add    %rcx,%rdx
    49f6:	8b 00                	mov    (%rax),%eax
    49f8:	89 02                	mov    %eax,(%rdx)
    49fa:	8b 45 f8             	mov    -0x8(%rbp),%eax
    49fd:	29 45 ec             	sub    %eax,-0x14(%rbp)
    4a00:	8b 55 c0             	mov    -0x40(%rbp),%edx
    4a03:	8b 45 f8             	mov    -0x8(%rbp),%eax
    4a06:	01 d0                	add    %edx,%eax
    4a08:	39 45 ec             	cmp    %eax,-0x14(%rbp)
    4a0b:	7c 52                	jl     4a5f <mainSimpleSort+0x232>
    4a0d:	8b 4d c4             	mov    -0x3c(%rbp),%ecx
    4a10:	8b 55 10             	mov    0x10(%rbp),%edx
    4a13:	8b 45 fc             	mov    -0x4(%rbp),%eax
    4a16:	8d 34 02             	lea    (%rdx,%rax,1),%esi
    4a19:	8b 45 ec             	mov    -0x14(%rbp),%eax
    4a1c:	2b 45 f8             	sub    -0x8(%rbp),%eax
    4a1f:	48 98                	cltq   
    4a21:	48 8d 14 85 00 00 00 	lea    0x0(,%rax,4),%rdx
    4a28:	00 
    4a29:	48 8b 45 d8          	mov    -0x28(%rbp),%rax
    4a2d:	48 01 d0             	add    %rdx,%rax
    4a30:	8b 10                	mov    (%rax),%edx
    4a32:	8b 45 10             	mov    0x10(%rbp),%eax
    4a35:	8d 3c 02             	lea    (%rdx,%rax,1),%edi
    4a38:	4c 8b 45 18          	mov    0x18(%rbp),%r8
    4a3c:	48 8b 55 c8          	mov    -0x38(%rbp),%rdx
    4a40:	48 8b 45 d0          	mov    -0x30(%rbp),%rax
    4a44:	4d 89 c1             	mov    %r8,%r9
    4a47:	41 89 c8             	mov    %ecx,%r8d
    4a4a:	48 89 d1             	mov    %rdx,%rcx
    4a4d:	48 89 c2             	mov    %rax,%rdx
    4a50:	e8 54 f6 ff ff       	call   40a9 <mainGtU>
    4a55:	84 c0                	test   %al,%al
    4a57:	0f 85 6d ff ff ff    	jne    49ca <mainSimpleSort+0x19d>
    4a5d:	eb 01                	jmp    4a60 <mainSimpleSort+0x233>
    4a5f:	90                   	nop
    4a60:	8b 45 ec             	mov    -0x14(%rbp),%eax
    4a63:	48 98                	cltq   
    4a65:	48 8d 14 85 00 00 00 	lea    0x0(,%rax,4),%rdx
    4a6c:	00 
    4a6d:	48 8b 45 d8          	mov    -0x28(%rbp),%rax
    4a71:	48 01 c2             	add    %rax,%rdx
    4a74:	8b 45 fc             	mov    -0x4(%rbp),%eax
    4a77:	89 02                	mov    %eax,(%rdx)
    4a79:	83 45 e8 01          	addl   $0x1,-0x18(%rbp)
    4a7d:	8b 45 e8             	mov    -0x18(%rbp),%eax
    4a80:	3b 45 bc             	cmp    -0x44(%rbp),%eax
    4a83:	0f 8f e9 00 00 00    	jg     4b72 <mainSimpleSort+0x345>
    4a89:	8b 45 e8             	mov    -0x18(%rbp),%eax
    4a8c:	48 98                	cltq   
    4a8e:	48 8d 14 85 00 00 00 	lea    0x0(,%rax,4),%rdx
    4a95:	00 
    4a96:	48 8b 45 d8          	mov    -0x28(%rbp),%rax
    4a9a:	48 01 d0             	add    %rdx,%rax
    4a9d:	8b 00                	mov    (%rax),%eax
    4a9f:	89 45 fc             	mov    %eax,-0x4(%rbp)
    4aa2:	8b 45 e8             	mov    -0x18(%rbp),%eax
    4aa5:	89 45 ec             	mov    %eax,-0x14(%rbp)
    4aa8:	eb 43                	jmp    4aed <mainSimpleSort+0x2c0>
    4aaa:	8b 45 ec             	mov    -0x14(%rbp),%eax
    4aad:	2b 45 f8             	sub    -0x8(%rbp),%eax
    4ab0:	48 98                	cltq   
    4ab2:	48 8d 14 85 00 00 00 	lea    0x0(,%rax,4),%rdx
    4ab9:	00 
    4aba:	48 8b 45 d8          	mov    -0x28(%rbp),%rax
    4abe:	48 01 d0             	add    %rdx,%rax
    4ac1:	8b 55 ec             	mov    -0x14(%rbp),%edx
    4ac4:	48 63 d2             	movslq %edx,%rdx
    4ac7:	48 8d 0c 95 00 00 00 	lea    0x0(,%rdx,4),%rcx
    4ace:	00 
    4acf:	48 8b 55 d8          	mov    -0x28(%rbp),%rdx
    4ad3:	48 01 ca             	add    %rcx,%rdx
    4ad6:	8b 00                	mov    (%rax),%eax
    4ad8:	89 02                	mov    %eax,(%rdx)
    4ada:	8b 45 f8             	mov    -0x8(%rbp),%eax
    4add:	29 45 ec             	sub    %eax,-0x14(%rbp)
    4ae0:	8b 55 c0             	mov    -0x40(%rbp),%edx
    4ae3:	8b 45 f8             	mov    -0x8(%rbp),%eax
    4ae6:	01 d0                	add    %edx,%eax
    4ae8:	39 45 ec             	cmp    %eax,-0x14(%rbp)
    4aeb:	7c 52                	jl     4b3f <mainSimpleSort+0x312>
    4aed:	8b 4d c4             	mov    -0x3c(%rbp),%ecx
    4af0:	8b 55 10             	mov    0x10(%rbp),%edx
    4af3:	8b 45 fc             	mov    -0x4(%rbp),%eax
    4af6:	8d 34 02             	lea    (%rdx,%rax,1),%esi
    4af9:	8b 45 ec             	mov    -0x14(%rbp),%eax
    4afc:	2b 45 f8             	sub    -0x8(%rbp),%eax
    4aff:	48 98                	cltq   
    4b01:	48 8d 14 85 00 00 00 	lea    0x0(,%rax,4),%rdx
    4b08:	00 
    4b09:	48 8b 45 d8          	mov    -0x28(%rbp),%rax
    4b0d:	48 01 d0             	add    %rdx,%rax
    4b10:	8b 10                	mov    (%rax),%edx
    4b12:	8b 45 10             	mov    0x10(%rbp),%eax
    4b15:	8d 3c 02             	lea    (%rdx,%rax,1),%edi
    4b18:	4c 8b 45 18          	mov    0x18(%rbp),%r8
    4b1c:	48 8b 55 c8          	mov    -0x38(%rbp),%rdx
    4b20:	48 8b 45 d0          	mov    -0x30(%rbp),%rax
    4b24:	4d 89 c1             	mov    %r8,%r9
    4b27:	41 89 c8             	mov    %ecx,%r8d
    4b2a:	48 89 d1             	mov    %rdx,%rcx
    4b2d:	48 89 c2             	mov    %rax,%rdx
    4b30:	e8 74 f5 ff ff       	call   40a9 <mainGtU>
    4b35:	84 c0                	test   %al,%al
    4b37:	0f 85 6d ff ff ff    	jne    4aaa <mainSimpleSort+0x27d>
    4b3d:	eb 01                	jmp    4b40 <mainSimpleSort+0x313>
    4b3f:	90                   	nop
    4b40:	8b 45 ec             	mov    -0x14(%rbp),%eax
    4b43:	48 98                	cltq   
    4b45:	48 8d 14 85 00 00 00 	lea    0x0(,%rax,4),%rdx
    4b4c:	00 
    4b4d:	48 8b 45 d8          	mov    -0x28(%rbp),%rax
    4b51:	48 01 c2             	add    %rax,%rdx
    4b54:	8b 45 fc             	mov    -0x4(%rbp),%eax
    4b57:	89 02                	mov    %eax,(%rdx)
    4b59:	83 45 e8 01          	addl   $0x1,-0x18(%rbp)
    4b5d:	48 8b 45 18          	mov    0x18(%rbp),%rax
    4b61:	8b 00                	mov    (%rax),%eax
    4b63:	85 c0                	test   %eax,%eax
    4b65:	78 1f                	js     4b86 <mainSimpleSort+0x359>
    4b67:	e9 51 fd ff ff       	jmp    48bd <mainSimpleSort+0x90>
    4b6c:	90                   	nop
    4b6d:	eb 04                	jmp    4b73 <mainSimpleSort+0x346>
    4b6f:	90                   	nop
    4b70:	eb 01                	jmp    4b73 <mainSimpleSort+0x346>
    4b72:	90                   	nop
    4b73:	83 6d f0 01          	subl   $0x1,-0x10(%rbp)
    4b77:	83 7d f0 00          	cmpl   $0x0,-0x10(%rbp)
    4b7b:	0f 89 17 fd ff ff    	jns    4898 <mainSimpleSort+0x6b>
    4b81:	eb 04                	jmp    4b87 <mainSimpleSort+0x35a>
    4b83:	90                   	nop
    4b84:	eb 01                	jmp    4b87 <mainSimpleSort+0x35a>
    4b86:	90                   	nop
    4b87:	c9                   	leave  
    4b88:	c3                   	ret    

0000000000004b89 <mmed3>:
    4b89:	f3 0f 1e fa          	endbr64 
    4b8d:	55                   	push   %rbp
    4b8e:	48 89 e5             	mov    %rsp,%rbp
    4b91:	89 f1                	mov    %esi,%ecx
    4b93:	89 d0                	mov    %edx,%eax
    4b95:	89 fa                	mov    %edi,%edx
    4b97:	88 55 ec             	mov    %dl,-0x14(%rbp)
    4b9a:	89 ca                	mov    %ecx,%edx
    4b9c:	88 55 e8             	mov    %dl,-0x18(%rbp)
    4b9f:	88 45 e4             	mov    %al,-0x1c(%rbp)
    4ba2:	0f b6 45 ec          	movzbl -0x14(%rbp),%eax
    4ba6:	3a 45 e8             	cmp    -0x18(%rbp),%al
    4ba9:	76 15                	jbe    4bc0 <mmed3+0x37>
    4bab:	0f b6 45 ec          	movzbl -0x14(%rbp),%eax
    4baf:	88 45 ff             	mov    %al,-0x1(%rbp)
    4bb2:	0f b6 45 e8          	movzbl -0x18(%rbp),%eax
    4bb6:	88 45 ec             	mov    %al,-0x14(%rbp)
    4bb9:	0f b6 45 ff          	movzbl -0x1(%rbp),%eax
    4bbd:	88 45 e8             	mov    %al,-0x18(%rbp)
    4bc0:	0f b6 45 e8          	movzbl -0x18(%rbp),%eax
    4bc4:	3a 45 e4             	cmp    -0x1c(%rbp),%al
    4bc7:	76 17                	jbe    4be0 <mmed3+0x57>
    4bc9:	0f b6 45 e4          	movzbl -0x1c(%rbp),%eax
    4bcd:	88 45 e8             	mov    %al,-0x18(%rbp)
    4bd0:	0f b6 45 ec          	movzbl -0x14(%rbp),%eax
    4bd4:	3a 45 e8             	cmp    -0x18(%rbp),%al
    4bd7:	76 07                	jbe    4be0 <mmed3+0x57>
    4bd9:	0f b6 45 ec          	movzbl -0x14(%rbp),%eax
    4bdd:	88 45 e8             	mov    %al,-0x18(%rbp)
    4be0:	0f b6 45 e8          	movzbl -0x18(%rbp),%eax
    4be4:	5d                   	pop    %rbp
    4be5:	c3                   	ret    

0000000000004be6 <mainQSort3>:
    4be6:	f3 0f 1e fa          	endbr64 
    4bea:	55                   	push   %rbp
    4beb:	48 89 e5             	mov    %rsp,%rbp
    4bee:	48 81 ec 80 05 00 00 	sub    $0x580,%rsp
    4bf5:	48 89 bd a8 fa ff ff 	mov    %rdi,-0x558(%rbp)
    4bfc:	48 89 b5 a0 fa ff ff 	mov    %rsi,-0x560(%rbp)
    4c03:	48 89 95 98 fa ff ff 	mov    %rdx,-0x568(%rbp)
    4c0a:	89 8d 94 fa ff ff    	mov    %ecx,-0x56c(%rbp)
    4c10:	44 89 85 90 fa ff ff 	mov    %r8d,-0x570(%rbp)
    4c17:	44 89 8d 8c fa ff ff 	mov    %r9d,-0x574(%rbp)
    4c1e:	48 8b 45 18          	mov    0x18(%rbp),%rax
    4c22:	48 89 85 80 fa ff ff 	mov    %rax,-0x580(%rbp)
    4c29:	64 48 8b 04 25 28 00 	mov    %fs:0x28,%rax
    4c30:	00 00 
    4c32:	48 89 45 f8          	mov    %rax,-0x8(%rbp)
    4c36:	31 c0                	xor    %eax,%eax
    4c38:	c7 85 c8 fa ff ff 00 	movl   $0x0,-0x538(%rbp)
    4c3f:	00 00 00 
    4c42:	8b 85 c8 fa ff ff    	mov    -0x538(%rbp),%eax
    4c48:	48 98                	cltq   
    4c4a:	8b 95 90 fa ff ff    	mov    -0x570(%rbp),%edx
    4c50:	89 94 85 40 fb ff ff 	mov    %edx,-0x4c0(%rbp,%rax,4)
    4c57:	8b 85 c8 fa ff ff    	mov    -0x538(%rbp),%eax
    4c5d:	48 98                	cltq   
    4c5f:	8b 95 8c fa ff ff    	mov    -0x574(%rbp),%edx
    4c65:	89 94 85 d0 fc ff ff 	mov    %edx,-0x330(%rbp,%rax,4)
    4c6c:	8b 85 c8 fa ff ff    	mov    -0x538(%rbp),%eax
    4c72:	48 98                	cltq   
    4c74:	8b 55 10             	mov    0x10(%rbp),%edx
    4c77:	89 94 85 60 fe ff ff 	mov    %edx,-0x1a0(%rbp,%rax,4)
    4c7e:	83 85 c8 fa ff ff 01 	addl   $0x1,-0x538(%rbp)
    4c85:	e9 dc 09 00 00       	jmp    5666 <mainQSort3+0xa80>
    4c8a:	83 bd c8 fa ff ff 63 	cmpl   $0x63,-0x538(%rbp)
    4c91:	7e 0a                	jle    4c9d <mainQSort3+0xb7>
    4c93:	bf e9 03 00 00       	mov    $0x3e9,%edi
    4c98:	e8 fc 2f 00 00       	call   7c99 <BZ2_bz__AssertH__fail>
    4c9d:	83 ad c8 fa ff ff 01 	subl   $0x1,-0x538(%rbp)
    4ca4:	8b 85 c8 fa ff ff    	mov    -0x538(%rbp),%eax
    4caa:	48 98                	cltq   
    4cac:	8b 84 85 40 fb ff ff 	mov    -0x4c0(%rbp,%rax,4),%eax
    4cb3:	89 85 e4 fa ff ff    	mov    %eax,-0x51c(%rbp)
    4cb9:	8b 85 c8 fa ff ff    	mov    -0x538(%rbp),%eax
    4cbf:	48 98                	cltq   
    4cc1:	8b 84 85 d0 fc ff ff 	mov    -0x330(%rbp,%rax,4),%eax
    4cc8:	89 85 e8 fa ff ff    	mov    %eax,-0x518(%rbp)
    4cce:	8b 85 c8 fa ff ff    	mov    -0x538(%rbp),%eax
    4cd4:	48 98                	cltq   
    4cd6:	8b 84 85 60 fe ff ff 	mov    -0x1a0(%rbp,%rax,4),%eax
    4cdd:	89 85 ec fa ff ff    	mov    %eax,-0x514(%rbp)
    4ce3:	8b 85 e8 fa ff ff    	mov    -0x518(%rbp),%eax
    4ce9:	2b 85 e4 fa ff ff    	sub    -0x51c(%rbp),%eax
    4cef:	83 f8 13             	cmp    $0x13,%eax
    4cf2:	7e 09                	jle    4cfd <mainQSort3+0x117>
    4cf4:	83 bd ec fa ff ff 0e 	cmpl   $0xe,-0x514(%rbp)
    4cfb:	7e 58                	jle    4d55 <mainQSort3+0x16f>
    4cfd:	44 8b 8d e8 fa ff ff 	mov    -0x518(%rbp),%r9d
    4d04:	44 8b 85 e4 fa ff ff 	mov    -0x51c(%rbp),%r8d
    4d0b:	8b 8d 94 fa ff ff    	mov    -0x56c(%rbp),%ecx
    4d11:	48 8b 95 98 fa ff ff 	mov    -0x568(%rbp),%rdx
    4d18:	48 8b b5 a0 fa ff ff 	mov    -0x560(%rbp),%rsi
    4d1f:	48 8b 85 a8 fa ff ff 	mov    -0x558(%rbp),%rax
    4d26:	ff b5 80 fa ff ff    	push   -0x580(%rbp)
    4d2c:	8b bd ec fa ff ff    	mov    -0x514(%rbp),%edi
    4d32:	57                   	push   %rdi
    4d33:	48 89 c7             	mov    %rax,%rdi
    4d36:	e8 f2 fa ff ff       	call   482d <mainSimpleSort>
    4d3b:	48 83 c4 10          	add    $0x10,%rsp
    4d3f:	48 8b 85 80 fa ff ff 	mov    -0x580(%rbp),%rax
    4d46:	8b 00                	mov    (%rax),%eax
    4d48:	85 c0                	test   %eax,%eax
    4d4a:	0f 88 25 09 00 00    	js     5675 <mainQSort3+0xa8f>
    4d50:	e9 11 09 00 00       	jmp    5666 <mainQSort3+0xa80>
    4d55:	8b 95 e4 fa ff ff    	mov    -0x51c(%rbp),%edx
    4d5b:	8b 85 e8 fa ff ff    	mov    -0x518(%rbp),%eax
    4d61:	01 d0                	add    %edx,%eax
    4d63:	d1 f8                	sar    %eax
    4d65:	48 98                	cltq   
    4d67:	48 8d 14 85 00 00 00 	lea    0x0(,%rax,4),%rdx
    4d6e:	00 
    4d6f:	48 8b 85 a8 fa ff ff 	mov    -0x558(%rbp),%rax
    4d76:	48 01 d0             	add    %rdx,%rax
    4d79:	8b 10                	mov    (%rax),%edx
    4d7b:	8b 85 ec fa ff ff    	mov    -0x514(%rbp),%eax
    4d81:	01 d0                	add    %edx,%eax
    4d83:	89 c2                	mov    %eax,%edx
    4d85:	48 8b 85 a0 fa ff ff 	mov    -0x560(%rbp),%rax
    4d8c:	48 01 d0             	add    %rdx,%rax
    4d8f:	0f b6 00             	movzbl (%rax),%eax
    4d92:	0f b6 d0             	movzbl %al,%edx
    4d95:	8b 85 e8 fa ff ff    	mov    -0x518(%rbp),%eax
    4d9b:	48 98                	cltq   
    4d9d:	48 8d 0c 85 00 00 00 	lea    0x0(,%rax,4),%rcx
    4da4:	00 
    4da5:	48 8b 85 a8 fa ff ff 	mov    -0x558(%rbp),%rax
    4dac:	48 01 c8             	add    %rcx,%rax
    4daf:	8b 08                	mov    (%rax),%ecx
    4db1:	8b 85 ec fa ff ff    	mov    -0x514(%rbp),%eax
    4db7:	01 c8                	add    %ecx,%eax
    4db9:	89 c1                	mov    %eax,%ecx
    4dbb:	48 8b 85 a0 fa ff ff 	mov    -0x560(%rbp),%rax
    4dc2:	48 01 c8             	add    %rcx,%rax
    4dc5:	0f b6 00             	movzbl (%rax),%eax
    4dc8:	0f b6 c8             	movzbl %al,%ecx
    4dcb:	8b 85 e4 fa ff ff    	mov    -0x51c(%rbp),%eax
    4dd1:	48 98                	cltq   
    4dd3:	48 8d 34 85 00 00 00 	lea    0x0(,%rax,4),%rsi
    4dda:	00 
    4ddb:	48 8b 85 a8 fa ff ff 	mov    -0x558(%rbp),%rax
    4de2:	48 01 f0             	add    %rsi,%rax
    4de5:	8b 30                	mov    (%rax),%esi
    4de7:	8b 85 ec fa ff ff    	mov    -0x514(%rbp),%eax
    4ded:	01 f0                	add    %esi,%eax
    4def:	89 c6                	mov    %eax,%esi
    4df1:	48 8b 85 a0 fa ff ff 	mov    -0x560(%rbp),%rax
    4df8:	48 01 f0             	add    %rsi,%rax
    4dfb:	0f b6 00             	movzbl (%rax),%eax
    4dfe:	0f b6 c0             	movzbl %al,%eax
    4e01:	89 ce                	mov    %ecx,%esi
    4e03:	89 c7                	mov    %eax,%edi
    4e05:	e8 7f fd ff ff       	call   4b89 <mmed3>
    4e0a:	0f b6 c0             	movzbl %al,%eax
    4e0d:	89 85 f0 fa ff ff    	mov    %eax,-0x510(%rbp)
    4e13:	8b 85 e4 fa ff ff    	mov    -0x51c(%rbp),%eax
    4e19:	89 85 c0 fa ff ff    	mov    %eax,-0x540(%rbp)
    4e1f:	8b 85 c0 fa ff ff    	mov    -0x540(%rbp),%eax
    4e25:	89 85 b8 fa ff ff    	mov    %eax,-0x548(%rbp)
    4e2b:	8b 85 e8 fa ff ff    	mov    -0x518(%rbp),%eax
    4e31:	89 85 c4 fa ff ff    	mov    %eax,-0x53c(%rbp)
    4e37:	8b 85 c4 fa ff ff    	mov    -0x53c(%rbp),%eax
    4e3d:	89 85 bc fa ff ff    	mov    %eax,-0x544(%rbp)
    4e43:	8b 85 b8 fa ff ff    	mov    -0x548(%rbp),%eax
    4e49:	3b 85 bc fa ff ff    	cmp    -0x544(%rbp),%eax
    4e4f:	0f 8f f1 00 00 00    	jg     4f46 <mainQSort3+0x360>
    4e55:	8b 85 b8 fa ff ff    	mov    -0x548(%rbp),%eax
    4e5b:	48 98                	cltq   
    4e5d:	48 8d 14 85 00 00 00 	lea    0x0(,%rax,4),%rdx
    4e64:	00 
    4e65:	48 8b 85 a8 fa ff ff 	mov    -0x558(%rbp),%rax
    4e6c:	48 01 d0             	add    %rdx,%rax
    4e6f:	8b 10                	mov    (%rax),%edx
    4e71:	8b 85 ec fa ff ff    	mov    -0x514(%rbp),%eax
    4e77:	01 d0                	add    %edx,%eax
    4e79:	89 c2                	mov    %eax,%edx
    4e7b:	48 8b 85 a0 fa ff ff 	mov    -0x560(%rbp),%rax
    4e82:	48 01 d0             	add    %rdx,%rax
    4e85:	0f b6 00             	movzbl (%rax),%eax
    4e88:	0f b6 c0             	movzbl %al,%eax
    4e8b:	2b 85 f0 fa ff ff    	sub    -0x510(%rbp),%eax
    4e91:	89 85 f4 fa ff ff    	mov    %eax,-0x50c(%rbp)
    4e97:	83 bd f4 fa ff ff 00 	cmpl   $0x0,-0x50c(%rbp)
    4e9e:	0f 85 8d 00 00 00    	jne    4f31 <mainQSort3+0x34b>
    4ea4:	8b 85 b8 fa ff ff    	mov    -0x548(%rbp),%eax
    4eaa:	48 98                	cltq   
    4eac:	48 8d 14 85 00 00 00 	lea    0x0(,%rax,4),%rdx
    4eb3:	00 
    4eb4:	48 8b 85 a8 fa ff ff 	mov    -0x558(%rbp),%rax
    4ebb:	48 01 d0             	add    %rdx,%rax
    4ebe:	8b 00                	mov    (%rax),%eax
    4ec0:	89 85 f8 fa ff ff    	mov    %eax,-0x508(%rbp)
    4ec6:	8b 85 c0 fa ff ff    	mov    -0x540(%rbp),%eax
    4ecc:	48 98                	cltq   
    4ece:	48 8d 14 85 00 00 00 	lea    0x0(,%rax,4),%rdx
    4ed5:	00 
    4ed6:	48 8b 85 a8 fa ff ff 	mov    -0x558(%rbp),%rax
    4edd:	48 01 d0             	add    %rdx,%rax
    4ee0:	8b 95 b8 fa ff ff    	mov    -0x548(%rbp),%edx
    4ee6:	48 63 d2             	movslq %edx,%rdx
    4ee9:	48 8d 0c 95 00 00 00 	lea    0x0(,%rdx,4),%rcx
    4ef0:	00 
    4ef1:	48 8b 95 a8 fa ff ff 	mov    -0x558(%rbp),%rdx
    4ef8:	48 01 ca             	add    %rcx,%rdx
    4efb:	8b 00                	mov    (%rax),%eax
    4efd:	89 02                	mov    %eax,(%rdx)
    4eff:	8b 85 c0 fa ff ff    	mov    -0x540(%rbp),%eax
    4f05:	48 98                	cltq   
    4f07:	48 8d 14 85 00 00 00 	lea    0x0(,%rax,4),%rdx
    4f0e:	00 
    4f0f:	48 8b 85 a8 fa ff ff 	mov    -0x558(%rbp),%rax
    4f16:	48 01 c2             	add    %rax,%rdx
    4f19:	8b 85 f8 fa ff ff    	mov    -0x508(%rbp),%eax
    4f1f:	89 02                	mov    %eax,(%rdx)
    4f21:	83 85 c0 fa ff ff 01 	addl   $0x1,-0x540(%rbp)
    4f28:	83 85 b8 fa ff ff 01 	addl   $0x1,-0x548(%rbp)
    4f2f:	eb 10                	jmp    4f41 <mainQSort3+0x35b>
    4f31:	83 bd f4 fa ff ff 00 	cmpl   $0x0,-0x50c(%rbp)
    4f38:	7f 0f                	jg     4f49 <mainQSort3+0x363>
    4f3a:	83 85 b8 fa ff ff 01 	addl   $0x1,-0x548(%rbp)
    4f41:	e9 fd fe ff ff       	jmp    4e43 <mainQSort3+0x25d>
    4f46:	90                   	nop
    4f47:	eb 01                	jmp    4f4a <mainQSort3+0x364>
    4f49:	90                   	nop
    4f4a:	8b 85 b8 fa ff ff    	mov    -0x548(%rbp),%eax
    4f50:	3b 85 bc fa ff ff    	cmp    -0x544(%rbp),%eax
    4f56:	0f 8f f1 00 00 00    	jg     504d <mainQSort3+0x467>
    4f5c:	8b 85 bc fa ff ff    	mov    -0x544(%rbp),%eax
    4f62:	48 98                	cltq   
    4f64:	48 8d 14 85 00 00 00 	lea    0x0(,%rax,4),%rdx
    4f6b:	00 
    4f6c:	48 8b 85 a8 fa ff ff 	mov    -0x558(%rbp),%rax
    4f73:	48 01 d0             	add    %rdx,%rax
    4f76:	8b 10                	mov    (%rax),%edx
    4f78:	8b 85 ec fa ff ff    	mov    -0x514(%rbp),%eax
    4f7e:	01 d0                	add    %edx,%eax
    4f80:	89 c2                	mov    %eax,%edx
    4f82:	48 8b 85 a0 fa ff ff 	mov    -0x560(%rbp),%rax
    4f89:	48 01 d0             	add    %rdx,%rax
    4f8c:	0f b6 00             	movzbl (%rax),%eax
    4f8f:	0f b6 c0             	movzbl %al,%eax
    4f92:	2b 85 f0 fa ff ff    	sub    -0x510(%rbp),%eax
    4f98:	89 85 f4 fa ff ff    	mov    %eax,-0x50c(%rbp)
    4f9e:	83 bd f4 fa ff ff 00 	cmpl   $0x0,-0x50c(%rbp)
    4fa5:	0f 85 8d 00 00 00    	jne    5038 <mainQSort3+0x452>
    4fab:	8b 85 bc fa ff ff    	mov    -0x544(%rbp),%eax
    4fb1:	48 98                	cltq   
    4fb3:	48 8d 14 85 00 00 00 	lea    0x0(,%rax,4),%rdx
    4fba:	00 
    4fbb:	48 8b 85 a8 fa ff ff 	mov    -0x558(%rbp),%rax
    4fc2:	48 01 d0             	add    %rdx,%rax
    4fc5:	8b 00                	mov    (%rax),%eax
    4fc7:	89 85 fc fa ff ff    	mov    %eax,-0x504(%rbp)
    4fcd:	8b 85 c4 fa ff ff    	mov    -0x53c(%rbp),%eax
    4fd3:	48 98                	cltq   
    4fd5:	48 8d 14 85 00 00 00 	lea    0x0(,%rax,4),%rdx
    4fdc:	00 
    4fdd:	48 8b 85 a8 fa ff ff 	mov    -0x558(%rbp),%rax
    4fe4:	48 01 d0             	add    %rdx,%rax
    4fe7:	8b 95 bc fa ff ff    	mov    -0x544(%rbp),%edx
    4fed:	48 63 d2             	movslq %edx,%rdx
    4ff0:	48 8d 0c 95 00 00 00 	lea    0x0(,%rdx,4),%rcx
    4ff7:	00 
    4ff8:	48 8b 95 a8 fa ff ff 	mov    -0x558(%rbp),%rdx
    4fff:	48 01 ca             	add    %rcx,%rdx
    5002:	8b 00                	mov    (%rax),%eax
    5004:	89 02                	mov    %eax,(%rdx)
    5006:	8b 85 c4 fa ff ff    	mov    -0x53c(%rbp),%eax
    500c:	48 98                	cltq   
    500e:	48 8d 14 85 00 00 00 	lea    0x0(,%rax,4),%rdx
    5015:	00 
    5016:	48 8b 85 a8 fa ff ff 	mov    -0x558(%rbp),%rax
    501d:	48 01 c2             	add    %rax,%rdx
    5020:	8b 85 fc fa ff ff    	mov    -0x504(%rbp),%eax
    5026:	89 02                	mov    %eax,(%rdx)
    5028:	83 ad c4 fa ff ff 01 	subl   $0x1,-0x53c(%rbp)
    502f:	83 ad bc fa ff ff 01 	subl   $0x1,-0x544(%rbp)
    5036:	eb 10                	jmp    5048 <mainQSort3+0x462>
    5038:	83 bd f4 fa ff ff 00 	cmpl   $0x0,-0x50c(%rbp)
    503f:	78 0f                	js     5050 <mainQSort3+0x46a>
    5041:	83 ad bc fa ff ff 01 	subl   $0x1,-0x544(%rbp)
    5048:	e9 fd fe ff ff       	jmp    4f4a <mainQSort3+0x364>
    504d:	90                   	nop
    504e:	eb 01                	jmp    5051 <mainQSort3+0x46b>
    5050:	90                   	nop
    5051:	8b 85 b8 fa ff ff    	mov    -0x548(%rbp),%eax
    5057:	3b 85 bc fa ff ff    	cmp    -0x544(%rbp),%eax
    505d:	0f 8f 90 00 00 00    	jg     50f3 <mainQSort3+0x50d>
    5063:	8b 85 b8 fa ff ff    	mov    -0x548(%rbp),%eax
    5069:	48 98                	cltq   
    506b:	48 8d 14 85 00 00 00 	lea    0x0(,%rax,4),%rdx
    5072:	00 
    5073:	48 8b 85 a8 fa ff ff 	mov    -0x558(%rbp),%rax
    507a:	48 01 d0             	add    %rdx,%rax
    507d:	8b 00                	mov    (%rax),%eax
    507f:	89 85 00 fb ff ff    	mov    %eax,-0x500(%rbp)
    5085:	8b 85 bc fa ff ff    	mov    -0x544(%rbp),%eax
    508b:	48 98                	cltq   
    508d:	48 8d 14 85 00 00 00 	lea    0x0(,%rax,4),%rdx
    5094:	00 
    5095:	48 8b 85 a8 fa ff ff 	mov    -0x558(%rbp),%rax
    509c:	48 01 d0             	add    %rdx,%rax
    509f:	8b 95 b8 fa ff ff    	mov    -0x548(%rbp),%edx
    50a5:	48 63 d2             	movslq %edx,%rdx
    50a8:	48 8d 0c 95 00 00 00 	lea    0x0(,%rdx,4),%rcx
    50af:	00 
    50b0:	48 8b 95 a8 fa ff ff 	mov    -0x558(%rbp),%rdx
    50b7:	48 01 ca             	add    %rcx,%rdx
    50ba:	8b 00                	mov    (%rax),%eax
    50bc:	89 02                	mov    %eax,(%rdx)
    50be:	8b 85 bc fa ff ff    	mov    -0x544(%rbp),%eax
    50c4:	48 98                	cltq   
    50c6:	48 8d 14 85 00 00 00 	lea    0x0(,%rax,4),%rdx
    50cd:	00 
    50ce:	48 8b 85 a8 fa ff ff 	mov    -0x558(%rbp),%rax
    50d5:	48 01 c2             	add    %rax,%rdx
    50d8:	8b 85 00 fb ff ff    	mov    -0x500(%rbp),%eax
    50de:	89 02                	mov    %eax,(%rdx)
    50e0:	83 85 b8 fa ff ff 01 	addl   $0x1,-0x548(%rbp)
    50e7:	83 ad bc fa ff ff 01 	subl   $0x1,-0x544(%rbp)
    50ee:	e9 50 fd ff ff       	jmp    4e43 <mainQSort3+0x25d>
    50f3:	90                   	nop
    50f4:	8b 85 c4 fa ff ff    	mov    -0x53c(%rbp),%eax
    50fa:	3b 85 c0 fa ff ff    	cmp    -0x540(%rbp),%eax
    5100:	7d 4e                	jge    5150 <mainQSort3+0x56a>
    5102:	8b 85 c8 fa ff ff    	mov    -0x538(%rbp),%eax
    5108:	48 98                	cltq   
    510a:	8b 95 e4 fa ff ff    	mov    -0x51c(%rbp),%edx
    5110:	89 94 85 40 fb ff ff 	mov    %edx,-0x4c0(%rbp,%rax,4)
    5117:	8b 85 c8 fa ff ff    	mov    -0x538(%rbp),%eax
    511d:	48 98                	cltq   
    511f:	8b 95 e8 fa ff ff    	mov    -0x518(%rbp),%edx
    5125:	89 94 85 d0 fc ff ff 	mov    %edx,-0x330(%rbp,%rax,4)
    512c:	8b 85 ec fa ff ff    	mov    -0x514(%rbp),%eax
    5132:	8d 50 01             	lea    0x1(%rax),%edx
    5135:	8b 85 c8 fa ff ff    	mov    -0x538(%rbp),%eax
    513b:	48 98                	cltq   
    513d:	89 94 85 60 fe ff ff 	mov    %edx,-0x1a0(%rbp,%rax,4)
    5144:	83 85 c8 fa ff ff 01 	addl   $0x1,-0x538(%rbp)
    514b:	e9 16 05 00 00       	jmp    5666 <mainQSort3+0xa80>
    5150:	8b 85 b8 fa ff ff    	mov    -0x548(%rbp),%eax
    5156:	2b 85 c0 fa ff ff    	sub    -0x540(%rbp),%eax
    515c:	89 c2                	mov    %eax,%edx
    515e:	8b 85 c0 fa ff ff    	mov    -0x540(%rbp),%eax
    5164:	2b 85 e4 fa ff ff    	sub    -0x51c(%rbp),%eax
    516a:	39 c2                	cmp    %eax,%edx
    516c:	0f 4e c2             	cmovle %edx,%eax
    516f:	89 85 f4 fa ff ff    	mov    %eax,-0x50c(%rbp)
    5175:	8b 85 e4 fa ff ff    	mov    -0x51c(%rbp),%eax
    517b:	89 85 cc fa ff ff    	mov    %eax,-0x534(%rbp)
    5181:	8b 85 b8 fa ff ff    	mov    -0x548(%rbp),%eax
    5187:	2b 85 f4 fa ff ff    	sub    -0x50c(%rbp),%eax
    518d:	89 85 d0 fa ff ff    	mov    %eax,-0x530(%rbp)
    5193:	8b 85 f4 fa ff ff    	mov    -0x50c(%rbp),%eax
    5199:	89 85 d4 fa ff ff    	mov    %eax,-0x52c(%rbp)
    519f:	e9 92 00 00 00       	jmp    5236 <mainQSort3+0x650>
    51a4:	8b 85 cc fa ff ff    	mov    -0x534(%rbp),%eax
    51aa:	48 98                	cltq   
    51ac:	48 8d 14 85 00 00 00 	lea    0x0(,%rax,4),%rdx
    51b3:	00 
    51b4:	48 8b 85 a8 fa ff ff 	mov    -0x558(%rbp),%rax
    51bb:	48 01 d0             	add    %rdx,%rax
    51be:	8b 00                	mov    (%rax),%eax
    51c0:	89 85 18 fb ff ff    	mov    %eax,-0x4e8(%rbp)
    51c6:	8b 85 d0 fa ff ff    	mov    -0x530(%rbp),%eax
    51cc:	48 98                	cltq   
    51ce:	48 8d 14 85 00 00 00 	lea    0x0(,%rax,4),%rdx
    51d5:	00 
    51d6:	48 8b 85 a8 fa ff ff 	mov    -0x558(%rbp),%rax
    51dd:	48 01 d0             	add    %rdx,%rax
    51e0:	8b 95 cc fa ff ff    	mov    -0x534(%rbp),%edx
    51e6:	48 63 d2             	movslq %edx,%rdx
    51e9:	48 8d 0c 95 00 00 00 	lea    0x0(,%rdx,4),%rcx
    51f0:	00 
    51f1:	48 8b 95 a8 fa ff ff 	mov    -0x558(%rbp),%rdx
    51f8:	48 01 ca             	add    %rcx,%rdx
    51fb:	8b 00                	mov    (%rax),%eax
    51fd:	89 02                	mov    %eax,(%rdx)
    51ff:	8b 85 d0 fa ff ff    	mov    -0x530(%rbp),%eax
    5205:	48 98                	cltq   
    5207:	48 8d 14 85 00 00 00 	lea    0x0(,%rax,4),%rdx
    520e:	00 
    520f:	48 8b 85 a8 fa ff ff 	mov    -0x558(%rbp),%rax
    5216:	48 01 c2             	add    %rax,%rdx
    5219:	8b 85 18 fb ff ff    	mov    -0x4e8(%rbp),%eax
    521f:	89 02                	mov    %eax,(%rdx)
    5221:	83 85 cc fa ff ff 01 	addl   $0x1,-0x534(%rbp)
    5228:	83 85 d0 fa ff ff 01 	addl   $0x1,-0x530(%rbp)
    522f:	83 ad d4 fa ff ff 01 	subl   $0x1,-0x52c(%rbp)
    5236:	83 bd d4 fa ff ff 00 	cmpl   $0x0,-0x52c(%rbp)
    523d:	0f 8f 61 ff ff ff    	jg     51a4 <mainQSort3+0x5be>
    5243:	8b 85 c4 fa ff ff    	mov    -0x53c(%rbp),%eax
    5249:	2b 85 bc fa ff ff    	sub    -0x544(%rbp),%eax
    524f:	89 c2                	mov    %eax,%edx
    5251:	8b 85 e8 fa ff ff    	mov    -0x518(%rbp),%eax
    5257:	2b 85 c4 fa ff ff    	sub    -0x53c(%rbp),%eax
    525d:	39 c2                	cmp    %eax,%edx
    525f:	0f 4e c2             	cmovle %edx,%eax
    5262:	89 85 04 fb ff ff    	mov    %eax,-0x4fc(%rbp)
    5268:	8b 85 b8 fa ff ff    	mov    -0x548(%rbp),%eax
    526e:	89 85 d8 fa ff ff    	mov    %eax,-0x528(%rbp)
    5274:	8b 85 e8 fa ff ff    	mov    -0x518(%rbp),%eax
    527a:	2b 85 04 fb ff ff    	sub    -0x4fc(%rbp),%eax
    5280:	83 c0 01             	add    $0x1,%eax
    5283:	89 85 dc fa ff ff    	mov    %eax,-0x524(%rbp)
    5289:	8b 85 04 fb ff ff    	mov    -0x4fc(%rbp),%eax
    528f:	89 85 e0 fa ff ff    	mov    %eax,-0x520(%rbp)
    5295:	e9 92 00 00 00       	jmp    532c <mainQSort3+0x746>
    529a:	8b 85 d8 fa ff ff    	mov    -0x528(%rbp),%eax
    52a0:	48 98                	cltq   
    52a2:	48 8d 14 85 00 00 00 	lea    0x0(,%rax,4),%rdx
    52a9:	00 
    52aa:	48 8b 85 a8 fa ff ff 	mov    -0x558(%rbp),%rax
    52b1:	48 01 d0             	add    %rdx,%rax
    52b4:	8b 00                	mov    (%rax),%eax
    52b6:	89 85 14 fb ff ff    	mov    %eax,-0x4ec(%rbp)
    52bc:	8b 85 dc fa ff ff    	mov    -0x524(%rbp),%eax
    52c2:	48 98                	cltq   
    52c4:	48 8d 14 85 00 00 00 	lea    0x0(,%rax,4),%rdx
    52cb:	00 
    52cc:	48 8b 85 a8 fa ff ff 	mov    -0x558(%rbp),%rax
    52d3:	48 01 d0             	add    %rdx,%rax
    52d6:	8b 95 d8 fa ff ff    	mov    -0x528(%rbp),%edx
    52dc:	48 63 d2             	movslq %edx,%rdx
    52df:	48 8d 0c 95 00 00 00 	lea    0x0(,%rdx,4),%rcx
    52e6:	00 
    52e7:	48 8b 95 a8 fa ff ff 	mov    -0x558(%rbp),%rdx
    52ee:	48 01 ca             	add    %rcx,%rdx
    52f1:	8b 00                	mov    (%rax),%eax
    52f3:	89 02                	mov    %eax,(%rdx)
    52f5:	8b 85 dc fa ff ff    	mov    -0x524(%rbp),%eax
    52fb:	48 98                	cltq   
    52fd:	48 8d 14 85 00 00 00 	lea    0x0(,%rax,4),%rdx
    5304:	00 
    5305:	48 8b 85 a8 fa ff ff 	mov    -0x558(%rbp),%rax
    530c:	48 01 c2             	add    %rax,%rdx
    530f:	8b 85 14 fb ff ff    	mov    -0x4ec(%rbp),%eax
    5315:	89 02                	mov    %eax,(%rdx)
    5317:	83 85 d8 fa ff ff 01 	addl   $0x1,-0x528(%rbp)
    531e:	83 85 dc fa ff ff 01 	addl   $0x1,-0x524(%rbp)
    5325:	83 ad e0 fa ff ff 01 	subl   $0x1,-0x520(%rbp)
    532c:	83 bd e0 fa ff ff 00 	cmpl   $0x0,-0x520(%rbp)
    5333:	0f 8f 61 ff ff ff    	jg     529a <mainQSort3+0x6b4>
    5339:	8b 95 e4 fa ff ff    	mov    -0x51c(%rbp),%edx
    533f:	8b 85 b8 fa ff ff    	mov    -0x548(%rbp),%eax
    5345:	01 d0                	add    %edx,%eax
    5347:	2b 85 c0 fa ff ff    	sub    -0x540(%rbp),%eax
    534d:	83 e8 01             	sub    $0x1,%eax
    5350:	89 85 f4 fa ff ff    	mov    %eax,-0x50c(%rbp)
    5356:	8b 85 c4 fa ff ff    	mov    -0x53c(%rbp),%eax
    535c:	2b 85 bc fa ff ff    	sub    -0x544(%rbp),%eax
    5362:	89 c2                	mov    %eax,%edx
    5364:	8b 85 e8 fa ff ff    	mov    -0x518(%rbp),%eax
    536a:	29 d0                	sub    %edx,%eax
    536c:	83 c0 01             	add    $0x1,%eax
    536f:	89 85 04 fb ff ff    	mov    %eax,-0x4fc(%rbp)
    5375:	8b 85 e4 fa ff ff    	mov    -0x51c(%rbp),%eax
    537b:	89 85 1c fb ff ff    	mov    %eax,-0x4e4(%rbp)
    5381:	8b 85 f4 fa ff ff    	mov    -0x50c(%rbp),%eax
    5387:	89 85 28 fb ff ff    	mov    %eax,-0x4d8(%rbp)
    538d:	8b 85 ec fa ff ff    	mov    -0x514(%rbp),%eax
    5393:	89 85 34 fb ff ff    	mov    %eax,-0x4cc(%rbp)
    5399:	8b 85 04 fb ff ff    	mov    -0x4fc(%rbp),%eax
    539f:	89 85 20 fb ff ff    	mov    %eax,-0x4e0(%rbp)
    53a5:	8b 85 e8 fa ff ff    	mov    -0x518(%rbp),%eax
    53ab:	89 85 2c fb ff ff    	mov    %eax,-0x4d4(%rbp)
    53b1:	8b 85 ec fa ff ff    	mov    -0x514(%rbp),%eax
    53b7:	89 85 38 fb ff ff    	mov    %eax,-0x4c8(%rbp)
    53bd:	8b 85 f4 fa ff ff    	mov    -0x50c(%rbp),%eax
    53c3:	83 c0 01             	add    $0x1,%eax
    53c6:	89 85 24 fb ff ff    	mov    %eax,-0x4dc(%rbp)
    53cc:	8b 85 04 fb ff ff    	mov    -0x4fc(%rbp),%eax
    53d2:	83 e8 01             	sub    $0x1,%eax
    53d5:	89 85 30 fb ff ff    	mov    %eax,-0x4d0(%rbp)
    53db:	8b 85 ec fa ff ff    	mov    -0x514(%rbp),%eax
    53e1:	83 c0 01             	add    $0x1,%eax
    53e4:	89 85 3c fb ff ff    	mov    %eax,-0x4c4(%rbp)
    53ea:	8b 85 28 fb ff ff    	mov    -0x4d8(%rbp),%eax
    53f0:	8b 8d 1c fb ff ff    	mov    -0x4e4(%rbp),%ecx
    53f6:	29 c8                	sub    %ecx,%eax
    53f8:	89 c2                	mov    %eax,%edx
    53fa:	8b 85 2c fb ff ff    	mov    -0x4d4(%rbp),%eax
    5400:	8b 8d 20 fb ff ff    	mov    -0x4e0(%rbp),%ecx
    5406:	29 c8                	sub    %ecx,%eax
    5408:	39 c2                	cmp    %eax,%edx
    540a:	7d 6c                	jge    5478 <mainQSort3+0x892>
    540c:	8b 85 1c fb ff ff    	mov    -0x4e4(%rbp),%eax
    5412:	89 85 08 fb ff ff    	mov    %eax,-0x4f8(%rbp)
    5418:	8b 85 20 fb ff ff    	mov    -0x4e0(%rbp),%eax
    541e:	89 85 1c fb ff ff    	mov    %eax,-0x4e4(%rbp)
    5424:	8b 85 08 fb ff ff    	mov    -0x4f8(%rbp),%eax
    542a:	89 85 20 fb ff ff    	mov    %eax,-0x4e0(%rbp)
    5430:	8b 85 28 fb ff ff    	mov    -0x4d8(%rbp),%eax
    5436:	89 85 08 fb ff ff    	mov    %eax,-0x4f8(%rbp)
    543c:	8b 85 2c fb ff ff    	mov    -0x4d4(%rbp),%eax
    5442:	89 85 28 fb ff ff    	mov    %eax,-0x4d8(%rbp)
    5448:	8b 85 08 fb ff ff    	mov    -0x4f8(%rbp),%eax
    544e:	89 85 2c fb ff ff    	mov    %eax,-0x4d4(%rbp)
    5454:	8b 85 34 fb ff ff    	mov    -0x4cc(%rbp),%eax
    545a:	89 85 08 fb ff ff    	mov    %eax,-0x4f8(%rbp)
    5460:	8b 85 38 fb ff ff    	mov    -0x4c8(%rbp),%eax
    5466:	89 85 34 fb ff ff    	mov    %eax,-0x4cc(%rbp)
    546c:	8b 85 08 fb ff ff    	mov    -0x4f8(%rbp),%eax
    5472:	89 85 38 fb ff ff    	mov    %eax,-0x4c8(%rbp)
    5478:	8b 85 2c fb ff ff    	mov    -0x4d4(%rbp),%eax
    547e:	8b 8d 20 fb ff ff    	mov    -0x4e0(%rbp),%ecx
    5484:	29 c8                	sub    %ecx,%eax
    5486:	89 c2                	mov    %eax,%edx
    5488:	8b 85 30 fb ff ff    	mov    -0x4d0(%rbp),%eax
    548e:	8b 8d 24 fb ff ff    	mov    -0x4dc(%rbp),%ecx
    5494:	29 c8                	sub    %ecx,%eax
    5496:	39 c2                	cmp    %eax,%edx
    5498:	7d 6c                	jge    5506 <mainQSort3+0x920>
    549a:	8b 85 20 fb ff ff    	mov    -0x4e0(%rbp),%eax
    54a0:	89 85 0c fb ff ff    	mov    %eax,-0x4f4(%rbp)
    54a6:	8b 85 24 fb ff ff    	mov    -0x4dc(%rbp),%eax
    54ac:	89 85 20 fb ff ff    	mov    %eax,-0x4e0(%rbp)
    54b2:	8b 85 0c fb ff ff    	mov    -0x4f4(%rbp),%eax
    54b8:	89 85 24 fb ff ff    	mov    %eax,-0x4dc(%rbp)
    54be:	8b 85 2c fb ff ff    	mov    -0x4d4(%rbp),%eax
    54c4:	89 85 0c fb ff ff    	mov    %eax,-0x4f4(%rbp)
    54ca:	8b 85 30 fb ff ff    	mov    -0x4d0(%rbp),%eax
    54d0:	89 85 2c fb ff ff    	mov    %eax,-0x4d4(%rbp)
    54d6:	8b 85 0c fb ff ff    	mov    -0x4f4(%rbp),%eax
    54dc:	89 85 30 fb ff ff    	mov    %eax,-0x4d0(%rbp)
    54e2:	8b 85 38 fb ff ff    	mov    -0x4c8(%rbp),%eax
    54e8:	89 85 0c fb ff ff    	mov    %eax,-0x4f4(%rbp)
    54ee:	8b 85 3c fb ff ff    	mov    -0x4c4(%rbp),%eax
    54f4:	89 85 38 fb ff ff    	mov    %eax,-0x4c8(%rbp)
    54fa:	8b 85 0c fb ff ff    	mov    -0x4f4(%rbp),%eax
    5500:	89 85 3c fb ff ff    	mov    %eax,-0x4c4(%rbp)
    5506:	8b 85 28 fb ff ff    	mov    -0x4d8(%rbp),%eax
    550c:	8b 8d 1c fb ff ff    	mov    -0x4e4(%rbp),%ecx
    5512:	29 c8                	sub    %ecx,%eax
    5514:	89 c2                	mov    %eax,%edx
    5516:	8b 85 2c fb ff ff    	mov    -0x4d4(%rbp),%eax
    551c:	8b 8d 20 fb ff ff    	mov    -0x4e0(%rbp),%ecx
    5522:	29 c8                	sub    %ecx,%eax
    5524:	39 c2                	cmp    %eax,%edx
    5526:	7d 6c                	jge    5594 <mainQSort3+0x9ae>
    5528:	8b 85 1c fb ff ff    	mov    -0x4e4(%rbp),%eax
    552e:	89 85 10 fb ff ff    	mov    %eax,-0x4f0(%rbp)
    5534:	8b 85 20 fb ff ff    	mov    -0x4e0(%rbp),%eax
    553a:	89 85 1c fb ff ff    	mov    %eax,-0x4e4(%rbp)
    5540:	8b 85 10 fb ff ff    	mov    -0x4f0(%rbp),%eax
    5546:	89 85 20 fb ff ff    	mov    %eax,-0x4e0(%rbp)
    554c:	8b 85 28 fb ff ff    	mov    -0x4d8(%rbp),%eax
    5552:	89 85 10 fb ff ff    	mov    %eax,-0x4f0(%rbp)
    5558:	8b 85 2c fb ff ff    	mov    -0x4d4(%rbp),%eax
    555e:	89 85 28 fb ff ff    	mov    %eax,-0x4d8(%rbp)
    5564:	8b 85 10 fb ff ff    	mov    -0x4f0(%rbp),%eax
    556a:	89 85 2c fb ff ff    	mov    %eax,-0x4d4(%rbp)
    5570:	8b 85 34 fb ff ff    	mov    -0x4cc(%rbp),%eax
    5576:	89 85 10 fb ff ff    	mov    %eax,-0x4f0(%rbp)
    557c:	8b 85 38 fb ff ff    	mov    -0x4c8(%rbp),%eax
    5582:	89 85 34 fb ff ff    	mov    %eax,-0x4cc(%rbp)
    5588:	8b 85 10 fb ff ff    	mov    -0x4f0(%rbp),%eax
    558e:	89 85 38 fb ff ff    	mov    %eax,-0x4c8(%rbp)
    5594:	8b 95 1c fb ff ff    	mov    -0x4e4(%rbp),%edx
    559a:	8b 85 c8 fa ff ff    	mov    -0x538(%rbp),%eax
    55a0:	48 98                	cltq   
    55a2:	89 94 85 40 fb ff ff 	mov    %edx,-0x4c0(%rbp,%rax,4)
    55a9:	8b 95 28 fb ff ff    	mov    -0x4d8(%rbp),%edx
    55af:	8b 85 c8 fa ff ff    	mov    -0x538(%rbp),%eax
    55b5:	48 98                	cltq   
    55b7:	89 94 85 d0 fc ff ff 	mov    %edx,-0x330(%rbp,%rax,4)
    55be:	8b 95 34 fb ff ff    	mov    -0x4cc(%rbp),%edx
    55c4:	8b 85 c8 fa ff ff    	mov    -0x538(%rbp),%eax
    55ca:	48 98                	cltq   
    55cc:	89 94 85 60 fe ff ff 	mov    %edx,-0x1a0(%rbp,%rax,4)
    55d3:	83 85 c8 fa ff ff 01 	addl   $0x1,-0x538(%rbp)
    55da:	8b 95 20 fb ff ff    	mov    -0x4e0(%rbp),%edx
    55e0:	8b 85 c8 fa ff ff    	mov    -0x538(%rbp),%eax
    55e6:	48 98                	cltq   
    55e8:	89 94 85 40 fb ff ff 	mov    %edx,-0x4c0(%rbp,%rax,4)
    55ef:	8b 95 2c fb ff ff    	mov    -0x4d4(%rbp),%edx
    55f5:	8b 85 c8 fa ff ff    	mov    -0x538(%rbp),%eax
    55fb:	48 98                	cltq   
    55fd:	89 94 85 d0 fc ff ff 	mov    %edx,-0x330(%rbp,%rax,4)
    5604:	8b 95 38 fb ff ff    	mov    -0x4c8(%rbp),%edx
    560a:	8b 85 c8 fa ff ff    	mov    -0x538(%rbp),%eax
    5610:	48 98                	cltq   
    5612:	89 94 85 60 fe ff ff 	mov    %edx,-0x1a0(%rbp,%rax,4)
    5619:	83 85 c8 fa ff ff 01 	addl   $0x1,-0x538(%rbp)
    5620:	8b 95 24 fb ff ff    	mov    -0x4dc(%rbp),%edx
    5626:	8b 85 c8 fa ff ff    	mov    -0x538(%rbp),%eax
    562c:	48 98                	cltq   
    562e:	89 94 85 40 fb ff ff 	mov    %edx,-0x4c0(%rbp,%rax,4)
    5635:	8b 95 30 fb ff ff    	mov    -0x4d0(%rbp),%edx
    563b:	8b 85 c8 fa ff ff    	mov    -0x538(%rbp),%eax
    5641:	48 98                	cltq   
    5643:	89 94 85 d0 fc ff ff 	mov    %edx,-0x330(%rbp,%rax,4)
    564a:	8b 95 3c fb ff ff    	mov    -0x4c4(%rbp),%edx
    5650:	8b 85 c8 fa ff ff    	mov    -0x538(%rbp),%eax
    5656:	48 98                	cltq   
    5658:	89 94 85 60 fe ff ff 	mov    %edx,-0x1a0(%rbp,%rax,4)
    565f:	83 85 c8 fa ff ff 01 	addl   $0x1,-0x538(%rbp)
    5666:	83 bd c8 fa ff ff 00 	cmpl   $0x0,-0x538(%rbp)
    566d:	0f 8f 17 f6 ff ff    	jg     4c8a <mainQSort3+0xa4>
    5673:	eb 01                	jmp    5676 <mainQSort3+0xa90>
    5675:	90                   	nop
    5676:	48 8b 45 f8          	mov    -0x8(%rbp),%rax
    567a:	64 48 2b 04 25 28 00 	sub    %fs:0x28,%rax
    5681:	00 00 
    5683:	74 05                	je     568a <mainQSort3+0xaa4>
    5685:	e8 46 bb ff ff       	call   11d0 <__stack_chk_fail@plt>
    568a:	c9                   	leave  
    568b:	c3                   	ret    

000000000000568c <mainSort>:
    568c:	f3 0f 1e fa          	endbr64 
    5690:	55                   	push   %rbp
    5691:	48 89 e5             	mov    %rsp,%rbp
    5694:	48 81 ec 80 0d 00 00 	sub    $0xd80,%rsp
    569b:	48 89 bd a8 f2 ff ff 	mov    %rdi,-0xd58(%rbp)
    56a2:	48 89 b5 a0 f2 ff ff 	mov    %rsi,-0xd60(%rbp)
    56a9:	48 89 95 98 f2 ff ff 	mov    %rdx,-0xd68(%rbp)
    56b0:	48 89 8d 90 f2 ff ff 	mov    %rcx,-0xd70(%rbp)
    56b7:	44 89 85 8c f2 ff ff 	mov    %r8d,-0xd74(%rbp)
    56be:	44 89 8d 88 f2 ff ff 	mov    %r9d,-0xd78(%rbp)
    56c5:	48 8b 45 10          	mov    0x10(%rbp),%rax
    56c9:	48 89 85 80 f2 ff ff 	mov    %rax,-0xd80(%rbp)
    56d0:	64 48 8b 04 25 28 00 	mov    %fs:0x28,%rax
    56d7:	00 00 
    56d9:	48 89 45 f8          	mov    %rax,-0x8(%rbp)
    56dd:	31 c0                	xor    %eax,%eax
    56df:	83 bd 88 f2 ff ff 03 	cmpl   $0x3,-0xd78(%rbp)
    56e6:	7e 23                	jle    570b <mainSort+0x7f>
    56e8:	48 8b 05 f1 85 01 00 	mov    0x185f1(%rip),%rax        # 1dce0 <stderr@GLIBC_2.2.5>
    56ef:	48 89 c1             	mov    %rax,%rcx
    56f2:	ba 21 00 00 00       	mov    $0x21,%edx
    56f7:	be 01 00 00 00       	mov    $0x1,%esi
    56fc:	48 8d 05 65 3d 01 00 	lea    0x13d65(%rip),%rax        # 19468 <_IO_stdin_used+0x468>
    5703:	48 89 c7             	mov    %rax,%rdi
    5706:	e8 a5 bb ff ff       	call   12b0 <fwrite@plt>
    570b:	c7 85 b8 f2 ff ff 00 	movl   $0x10000,-0xd48(%rbp)
    5712:	00 01 00 
    5715:	eb 27                	jmp    573e <mainSort+0xb2>
    5717:	8b 85 b8 f2 ff ff    	mov    -0xd48(%rbp),%eax
    571d:	48 98                	cltq   
    571f:	48 8d 14 85 00 00 00 	lea    0x0(,%rax,4),%rdx
    5726:	00 
    5727:	48 8b 85 90 f2 ff ff 	mov    -0xd70(%rbp),%rax
